SF:/Users/apognu/code/personal/motiva/src/api/config.rs
FN:33,_RNvMNtNtCsXyt6dnSXPr_6motiva3api6configNtB2_6Config8from_env
FN:138,_RNvNtNtCsXyt6dnSXPr_6motiva3api6config21detect_gcp_project_id
FN:90,_RNvXs0_NtNtCsXyt6dnSXPr_6motiva3api6configNtB5_12EsAuthMethodNtNtNtCsaNl6UpbT7bw_4core3str6traits7FromStr8from_str
FN:112,_RNvXs1_NtNtCsXyt6dnSXPr_6motiva3api6configNtB5_15TracingExporterINtNtCsaNl6UpbT7bw_4core7convert7TryFromNtNtCsiTraAjBDcu4_5alloc6string6StringE8try_from
FN:69,_RNvXs_NtNtCsXyt6dnSXPr_6motiva3api6configNtB4_3EnvINtNtCsaNl6UpbT7bw_4core7convert4FromNtNtCsiTraAjBDcu4_5alloc6string6StringE4from
FN:122,_RINvNtNtCsXyt6dnSXPr_6motiva3api6config9parse_envNtNtCsiTraAjBDcu4_5alloc6string6StringEB6_
FN:122,_RINvNtNtCsXyt6dnSXPr_6motiva3api6config9parse_envjEB6_
FN:129,_RNCINvNtNtCsXyt6dnSXPr_6motiva3api6config9parse_envNtNtCsiTraAjBDcu4_5alloc6string6StringE0B8_
FN:129,_RNCINvNtNtCsXyt6dnSXPr_6motiva3api6config9parse_envjE0B8_
FN:33,_RNCNvMNtNtCsXyt6dnSXPr_6motiva3api6configNtB4_6Config8from_env0B8_
FN:138,_RNCNvNtNtCsXyt6dnSXPr_6motiva3api6config21detect_gcp_project_id0B7_
FNDA:1,_RNvMNtNtCsXyt6dnSXPr_6motiva3api6configNtB2_6Config8from_env
FNDA:1,_RNvNtNtCsXyt6dnSXPr_6motiva3api6config21detect_gcp_project_id
FNDA:1,_RNvXs0_NtNtCsXyt6dnSXPr_6motiva3api6configNtB5_12EsAuthMethodNtNtNtCsaNl6UpbT7bw_4core3str6traits7FromStr8from_str
FNDA:1,_RNvXs1_NtNtCsXyt6dnSXPr_6motiva3api6configNtB5_15TracingExporterINtNtCsaNl6UpbT7bw_4core7convert7TryFromNtNtCsiTraAjBDcu4_5alloc6string6StringE8try_from
FNDA:1,_RNvXs_NtNtCsXyt6dnSXPr_6motiva3api6configNtB4_3EnvINtNtCsaNl6UpbT7bw_4core7convert4FromNtNtCsiTraAjBDcu4_5alloc6string6StringE4from
FNDA:1,_RINvNtNtCsXyt6dnSXPr_6motiva3api6config9parse_envNtNtCsiTraAjBDcu4_5alloc6string6StringEB6_
FNDA:1,_RINvNtNtCsXyt6dnSXPr_6motiva3api6config9parse_envjEB6_
FNDA:0,_RNCINvNtNtCsXyt6dnSXPr_6motiva3api6config9parse_envNtNtCsiTraAjBDcu4_5alloc6string6StringE0B8_
FNDA:0,_RNCINvNtNtCsXyt6dnSXPr_6motiva3api6config9parse_envjE0B8_
FNDA:1,_RNCNvMNtNtCsXyt6dnSXPr_6motiva3api6configNtB4_6Config8from_env0B8_
FNDA:1,_RNCNvNtNtCsXyt6dnSXPr_6motiva3api6config21detect_gcp_project_id0B7_
FNF:9
FNH:8
DA:33,1
DA:34,1
DA:35,1
DA:36,1
DA:37,1
DA:38,1
DA:39,1
DA:40,1
DA:41,1
DA:42,1
DA:43,1
DA:44,1
DA:45,1
DA:47,1
DA:50,1
DA:51,0
DA:53,0
DA:54,0
DA:55,0
DA:56,1
DA:58,1
DA:59,1
DA:69,1
DA:70,1
DA:71,1
DA:72,0
DA:73,0
DA:75,1
DA:90,1
DA:91,1
DA:92,1
DA:93,0
DA:94,0
DA:95,0
DA:96,0
DA:97,0
DA:99,1
DA:112,1
DA:113,1
DA:114,1
DA:116,0
DA:117,0
DA:119,1
DA:122,2
DA:123,2
DA:124,2
DA:125,2
DA:127,2
DA:128,0
DA:129,0
DA:130,2
DA:131,2
DA:132,0
DA:135,2
DA:138,1
DA:139,1
DA:140,0
DA:141,1
DA:142,1
DA:143,1
DA:144,0
DA:146,0
DA:149,1
BRF:0
BRH:0
LF:66
LH:46
end_of_record
SF:/Users/apognu/code/personal/motiva/src/api/errors.rs
FN:37,_RNvXNtNtCsXyt6dnSXPr_6motiva3api6errorsNtB2_8AppErrorNtNtNtCsiHnBR5ecFxR_9axum_core8response13into_response12IntoResponse13into_response
FN:62,_RNvXs0_NtNtCsXyt6dnSXPr_6motiva3api6errorsNtB5_8ApiErrorNtNtNtCsiHnBR5ecFxR_9axum_core8response13into_response12IntoResponse13into_response
FN:45,_RNvXs_NtNtCsXyt6dnSXPr_6motiva3api6errorsNtB4_8ApiErrorINtNtCsaNl6UpbT7bw_4core7convert4FromRNtB4_8AppErrorE4from
FNDA:0,_RNvXNtNtCsXyt6dnSXPr_6motiva3api6errorsNtB2_8AppErrorNtNtNtCsiHnBR5ecFxR_9axum_core8response13into_response12IntoResponse13into_response
FNDA:0,_RNvXs0_NtNtCsXyt6dnSXPr_6motiva3api6errorsNtB5_8ApiErrorNtNtNtCsiHnBR5ecFxR_9axum_core8response13into_response12IntoResponse13into_response
FNDA:0,_RNvXs_NtNtCsXyt6dnSXPr_6motiva3api6errorsNtB4_8ApiErrorINtNtCsaNl6UpbT7bw_4core7convert4FromRNtB4_8AppErrorE4from
FNF:3
FNH:0
DA:37,0
DA:38,0
DA:40,0
DA:41,0
DA:45,0
DA:46,0
DA:47,0
DA:48,0
DA:49,0
DA:50,0
DA:51,0
DA:52,0
DA:53,0
DA:54,0
DA:56,0
DA:58,0
DA:62,0
DA:63,0
DA:64,0
DA:65,0
DA:66,0
DA:68,0
DA:69,0
DA:73,0
DA:74,0
BRF:0
BRH:0
LF:25
LH:0
end_of_record
SF:/Users/apognu/code/personal/motiva/src/api/handlers/get_entity.rs
FN:24,_RINvNtNtNtCsXyt6dnSXPr_6motiva3api8handlers10get_entity10get_entitypEB8_
FN:24,_RNCINvNtNtNtCsXyt6dnSXPr_6motiva3api8handlers10get_entity10get_entitypE0Ba_
FNDA:0,_RINvNtNtNtCsXyt6dnSXPr_6motiva3api8handlers10get_entity10get_entitypEB8_
FNDA:0,_RNCINvNtNtNtCsXyt6dnSXPr_6motiva3api8handlers10get_entity10get_entitypE0Ba_
FNF:2
FNH:0
DA:24,0
DA:107,0
BRF:0
BRH:0
LF:3
LH:0
end_of_record
SF:/Users/apognu/code/personal/motiva/src/api/handlers/match_entities.rs
FN:26,_RINvNtNtNtCsXyt6dnSXPr_6motiva3api8handlers14match_entities14match_entitiesNtNtB8_5tests19MockedElasticsearchEB8_
FN:31,_RNCINvNtNtNtCsXyt6dnSXPr_6motiva3api8handlers14match_entities14match_entitiesNtNtBa_5tests19MockedElasticsearchE0Ba_
FN:35,_RNCNCNCINvNtNtNtCsXyt6dnSXPr_6motiva3api8handlers14match_entities14match_entitiesNtNtBe_5tests19MockedElasticsearchE000Be_
FN:39,_RNCNCNCINvNtNtNtCsXyt6dnSXPr_6motiva3api8handlers14match_entities14match_entitiesNtNtBe_5tests19MockedElasticsearchE00s_0Be_
FN:44,_RNCNCNCNCINvNtNtNtCsXyt6dnSXPr_6motiva3api8handlers14match_entities14match_entitiesNtNtBg_5tests19MockedElasticsearchE00s_00Bg_
FN:65,_RNCNCNCNCNCINvNtNtNtCsXyt6dnSXPr_6motiva3api8handlers14match_entities14match_entitiesNtNtBi_5tests19MockedElasticsearchE00s_000Bi_
FN:69,_RNCNCNCNCNCINvNtNtNtCsXyt6dnSXPr_6motiva3api8handlers14match_entities14match_entitiesNtNtBi_5tests19MockedElasticsearchE00s_00s0_0Bi_
FN:66,_RNCNCNCNCNCINvNtNtNtCsXyt6dnSXPr_6motiva3api8handlers14match_entities14match_entitiesNtNtBi_5tests19MockedElasticsearchE00s_00s_0Bi_
FNDA:1,_RINvNtNtNtCsXyt6dnSXPr_6motiva3api8handlers14match_entities14match_entitiesNtNtB8_5tests19MockedElasticsearchEB8_
FNDA:1,_RNCINvNtNtNtCsXyt6dnSXPr_6motiva3api8handlers14match_entities14match_entitiesNtNtBa_5tests19MockedElasticsearchE0Ba_
FNDA:1,_RNCNCNCINvNtNtNtCsXyt6dnSXPr_6motiva3api8handlers14match_entities14match_entitiesNtNtBe_5tests19MockedElasticsearchE000Be_
FNDA:1,_RNCNCNCINvNtNtNtCsXyt6dnSXPr_6motiva3api8handlers14match_entities14match_entitiesNtNtBe_5tests19MockedElasticsearchE00s_0Be_
FNDA:1,_RNCNCNCNCINvNtNtNtCsXyt6dnSXPr_6motiva3api8handlers14match_entities14match_entitiesNtNtBg_5tests19MockedElasticsearchE00s_00Bg_
FNDA:2,_RNCNCNCNCNCINvNtNtNtCsXyt6dnSXPr_6motiva3api8handlers14match_entities14match_entitiesNtNtBi_5tests19MockedElasticsearchE00s_000Bi_
FNDA:1,_RNCNCNCNCNCINvNtNtNtCsXyt6dnSXPr_6motiva3api8handlers14match_entities14match_entitiesNtNtBi_5tests19MockedElasticsearchE00s_00s0_0Bi_
FNDA:0,_RNCNCNCNCNCINvNtNtNtCsXyt6dnSXPr_6motiva3api8handlers14match_entities14match_entitiesNtNtBi_5tests19MockedElasticsearchE00s_00s_0Bi_
FNF:8
FNH:7
DA:26,1
DA:27,1
DA:28,1
DA:29,1
DA:30,1
DA:31,1
DA:35,1
DA:36,1
DA:37,1
DA:39,1
DA:40,1
DA:41,1
DA:42,1
DA:44,1
DA:45,1
DA:46,1
DA:48,0
DA:49,0
DA:51,0
DA:55,1
DA:56,0
DA:57,0
DA:58,1
DA:61,1
DA:62,1
DA:63,1
DA:64,1
DA:65,2
DA:66,1
DA:67,1
DA:68,1
DA:69,1
DA:70,1
DA:71,1
DA:72,1
DA:73,1
DA:75,1
DA:76,1
DA:77,1
DA:78,1
DA:79,1
DA:80,1
DA:81,1
DA:82,1
DA:85,0
DA:87,1
DA:88,1
DA:90,1
DA:107,1
BRF:0
BRH:0
LF:52
LH:45
end_of_record
SF:/Users/apognu/code/personal/motiva/src/api/handlers/mod.rs
FN:32,_RINvNtNtCsXyt6dnSXPr_6motiva3api8handlers6readyzpEB6_
FN:32,_RNCINvNtNtCsXyt6dnSXPr_6motiva3api8handlers6readyzpE0B8_
FN:28,_RNCNvNtNtCsXyt6dnSXPr_6motiva3api8handlers7healthz0B7_
FN:19,_RNCNvNtNtCsXyt6dnSXPr_6motiva3api8handlers9not_found0B7_
FN:28,_RNvNtNtCsXyt6dnSXPr_6motiva3api8handlers7healthz
FN:19,_RNvNtNtCsXyt6dnSXPr_6motiva3api8handlers9not_found
FNDA:0,_RINvNtNtCsXyt6dnSXPr_6motiva3api8handlers6readyzpEB6_
FNDA:0,_RNCINvNtNtCsXyt6dnSXPr_6motiva3api8handlers6readyzpE0B8_
FNDA:0,_RNCNvNtNtCsXyt6dnSXPr_6motiva3api8handlers7healthz0B7_
FNDA:0,_RNCNvNtNtCsXyt6dnSXPr_6motiva3api8handlers9not_found0B7_
FNDA:0,_RNvNtNtCsXyt6dnSXPr_6motiva3api8handlers7healthz
FNDA:0,_RNvNtNtCsXyt6dnSXPr_6motiva3api8handlers9not_found
FNF:6
FNH:0
DA:19,0
DA:20,0
DA:21,0
DA:28,0
DA:29,0
DA:30,0
DA:32,0
DA:33,0
DA:34,0
DA:37,0
DA:38,0
DA:41,0
DA:42,0
DA:43,0
DA:45,0
BRF:0
BRH:0
LF:18
LH:0
end_of_record
SF:/Users/apognu/code/personal/motiva/src/api/handlers/proxy.rs
FN:10,_RINvNtNtNtCsXyt6dnSXPr_6motiva3api8handlers5proxy7catalogpEB8_
FN:10,_RNCINvNtNtNtCsXyt6dnSXPr_6motiva3api8handlers5proxy7catalogpE0Ba_
FNDA:0,_RINvNtNtNtCsXyt6dnSXPr_6motiva3api8handlers5proxy7catalogpEB8_
FNDA:0,_RNCINvNtNtNtCsXyt6dnSXPr_6motiva3api8handlers5proxy7catalogpE0Ba_
FNF:2
FNH:0
DA:10,0
DA:11,0
DA:12,0
DA:14,0
DA:15,0
DA:16,0
DA:17,0
DA:18,0
DA:19,0
DA:20,0
DA:22,0
DA:25,0
BRF:0
BRH:0
LF:13
LH:0
end_of_record
SF:/Users/apognu/code/personal/motiva/src/api/middlewares/json_rejection.rs
FN:23,_RNvXNtNtNtCsXyt6dnSXPr_6motiva3api11middlewares14json_rejectionNtB2_18TypedJsonRejectionNtNtNtCsiHnBR5ecFxR_9axum_core8response13into_response12IntoResponse13into_response
FN:33,_RNCNvXNtNtNtCsXyt6dnSXPr_6motiva3api11middlewares14json_rejectionNtB4_18TypedJsonRejectionNtNtNtCsiHnBR5ecFxR_9axum_core8response13into_response12IntoResponse13into_response0Ba_
FN:33,_RNCNvXNtNtNtCsXyt6dnSXPr_6motiva3api11middlewares14json_rejectionNtB4_18TypedJsonRejectionNtNtNtCsiHnBR5ecFxR_9axum_core8response13into_response12IntoResponse13into_responses_0Ba_
FN:48,_RNCNvXs_NtNtNtCsXyt6dnSXPr_6motiva3api11middlewares14json_rejectionINtB6_9TypedJsonNtNtBa_3dto7PayloadEINtNtCsiHnBR5ecFxR_9axum_core7extract11FromRequestINtBa_8AppStateNtNtBc_5tests19MockedElasticsearchEE12from_request0Bc_
FN:48,_RNvXs_NtNtNtCsXyt6dnSXPr_6motiva3api11middlewares14json_rejectionINtB4_9TypedJsonNtNtB8_3dto7PayloadEINtNtCsiHnBR5ecFxR_9axum_core7extract11FromRequestINtB8_8AppStateNtNtBa_5tests19MockedElasticsearchEE12from_requestBa_
FNDA:0,_RNvXNtNtNtCsXyt6dnSXPr_6motiva3api11middlewares14json_rejectionNtB2_18TypedJsonRejectionNtNtNtCsiHnBR5ecFxR_9axum_core8response13into_response12IntoResponse13into_response
FNDA:0,_RNCNvXNtNtNtCsXyt6dnSXPr_6motiva3api11middlewares14json_rejectionNtB4_18TypedJsonRejectionNtNtNtCsiHnBR5ecFxR_9axum_core8response13into_response12IntoResponse13into_response0Ba_
FNDA:0,_RNCNvXNtNtNtCsXyt6dnSXPr_6motiva3api11middlewares14json_rejectionNtB4_18TypedJsonRejectionNtNtNtCsiHnBR5ecFxR_9axum_core8response13into_response12IntoResponse13into_responses_0Ba_
FNDA:1,_RNCNvXs_NtNtNtCsXyt6dnSXPr_6motiva3api11middlewares14json_rejectionINtB6_9TypedJsonNtNtBa_3dto7PayloadEINtNtCsiHnBR5ecFxR_9axum_core7extract11FromRequestINtBa_8AppStateNtNtBc_5tests19MockedElasticsearchEE12from_request0Bc_
FNDA:1,_RNvXs_NtNtNtCsXyt6dnSXPr_6motiva3api11middlewares14json_rejectionINtB4_9TypedJsonNtNtB8_3dto7PayloadEINtNtCsiHnBR5ecFxR_9axum_core7extract11FromRequestINtB8_8AppStateNtNtBa_5tests19MockedElasticsearchEE12from_requestBa_
FNF:5
FNH:2
DA:23,0
DA:24,0
DA:25,0
DA:26,0
DA:27,0
DA:28,0
DA:29,0
DA:32,0
DA:33,0
DA:35,0
DA:38,0
DA:48,1
DA:49,1
DA:50,1
DA:51,1
DA:52,0
DA:55,0
DA:57,1
BRF:0
BRH:0
LF:21
LH:6
end_of_record
SF:/Users/apognu/code/personal/motiva/src/api/middlewares/logging.rs
FN:26,_RINvNtNtNtCsXyt6dnSXPr_6motiva3api11middlewares7logging10api_loggerpEB8_
FN:29,_RNCINvNtNtNtCsXyt6dnSXPr_6motiva3api11middlewares7logging10api_loggerpE0Ba_
FN:68,_RNvNtNtNtCsXyt6dnSXPr_6motiva3api11middlewares7logging17trace_id_for_logs
FNDA:0,_RINvNtNtNtCsXyt6dnSXPr_6motiva3api11middlewares7logging10api_loggerpEB8_
FNDA:0,_RNCINvNtNtNtCsXyt6dnSXPr_6motiva3api11middlewares7logging10api_loggerpE0Ba_
FNDA:0,_RNvNtNtNtCsXyt6dnSXPr_6motiva3api11middlewares7logging17trace_id_for_logs
FNF:3
FNH:0
DA:26,0
DA:27,0
DA:28,0
DA:29,0
DA:30,0
DA:31,0
DA:33,0
DA:34,0
DA:35,0
DA:37,0
DA:38,0
DA:39,0
DA:40,0
DA:42,0
DA:45,0
DA:46,0
DA:48,0
DA:50,0
DA:56,0
DA:57,0
DA:58,0
DA:59,0
DA:60,0
DA:65,0
DA:66,0
DA:68,0
DA:69,0
DA:70,0
DA:72,0
DA:74,0
BRF:0
BRH:0
LF:30
LH:0
end_of_record
SF:/Users/apognu/code/personal/motiva/src/api/middlewares/mod.rs
FN:16,_RNCNvNtNtCsXyt6dnSXPr_6motiva3api11middlewares10request_id0B7_
FN:16,_RNvNtNtCsXyt6dnSXPr_6motiva3api11middlewares10request_id
FNDA:0,_RNCNvNtNtCsXyt6dnSXPr_6motiva3api11middlewares10request_id0B7_
FNDA:0,_RNvNtNtCsXyt6dnSXPr_6motiva3api11middlewares10request_id
FNF:2
FNH:0
DA:16,0
DA:17,0
DA:18,0
DA:20,0
DA:22,0
DA:24,0
DA:26,0
DA:27,0
BRF:0
BRH:0
LF:9
LH:0
end_of_record
SF:/Users/apognu/code/personal/motiva/src/api/mod.rs
FN:92,_RNCNCNvNtCsXyt6dnSXPr_6motiva3api6routess_00B7_
FN:65,_RNCNvNtCsXyt6dnSXPr_6motiva3api6routes0B5_
FN:91,_RNCNvNtCsXyt6dnSXPr_6motiva3api6routess_0B5_
FN:37,_RNvNtCsXyt6dnSXPr_6motiva3api6routes
FNDA:0,_RNCNCNvNtCsXyt6dnSXPr_6motiva3api6routess_00B7_
FNDA:0,_RNCNvNtCsXyt6dnSXPr_6motiva3api6routes0B5_
FNDA:0,_RNCNvNtCsXyt6dnSXPr_6motiva3api6routess_0B5_
FNDA:0,_RNvNtCsXyt6dnSXPr_6motiva3api6routes
FNF:4
FNH:0
DA:37,0
DA:38,0
DA:40,0
DA:41,0
DA:42,0
DA:43,0
DA:45,0
DA:46,0
DA:47,0
DA:48,0
DA:49,0
DA:50,0
DA:53,0
DA:56,0
DA:57,0
DA:58,0
DA:59,0
DA:60,0
DA:62,0
DA:63,0
DA:65,0
DA:67,0
DA:69,0
DA:70,0
DA:71,0
DA:72,0
DA:75,0
DA:82,0
DA:83,0
DA:84,0
DA:85,0
DA:86,0
DA:87,0
DA:88,0
DA:89,0
DA:90,0
DA:91,0
DA:92,0
DA:93,0
DA:95,0
DA:96,0
DA:98,0
DA:99,0
DA:100,0
DA:102,0
BRF:0
BRH:0
LF:47
LH:0
end_of_record
SF:/Users/apognu/code/personal/motiva/src/catalog.rs
FN:27,_RNCNCNvNtCsXyt6dnSXPr_6motiva7catalog13fetch_catalog0s_0B7_
FN:20,_RNCNvNtCsXyt6dnSXPr_6motiva7catalog13fetch_catalog0B5_
FN:20,_RNvNtCsXyt6dnSXPr_6motiva7catalog13fetch_catalog
FNDA:0,_RNCNCNvNtCsXyt6dnSXPr_6motiva7catalog13fetch_catalog0s_0B7_
FNDA:0,_RNCNvNtCsXyt6dnSXPr_6motiva7catalog13fetch_catalog0B5_
FNDA:0,_RNvNtCsXyt6dnSXPr_6motiva7catalog13fetch_catalog
FNF:3
FNH:0
DA:20,0
DA:21,0
DA:22,0
DA:23,0
DA:24,0
DA:26,0
DA:27,0
DA:28,0
DA:30,0
DA:32,0
DA:33,0
BRF:0
BRH:0
LF:13
LH:0
end_of_record
SF:/Users/apognu/code/personal/motiva/src/index/mod.rs
FN:56,_RNvMNtCsXyt6dnSXPr_6motiva5indexNtB2_8EsEntity7caption
FNDA:0,_RNvMNtCsXyt6dnSXPr_6motiva5indexNtB2_8EsEntity7caption
FNF:1
FNH:0
DA:56,0
DA:57,0
DA:58,0
DA:59,0
DA:61,0
DA:62,0
DA:63,0
DA:64,0
DA:65,0
DA:68,0
DA:69,0
DA:72,0
DA:75,0
DA:77,0
BRF:0
BRH:0
LF:14
LH:0
end_of_record
SF:/Users/apognu/code/personal/motiva/src/index/search.rs
FN:165,_RNCNCNCNvXNtNtCsXyt6dnSXPr_6motiva5index6searchNtB8_21ElasticsearchProviderNtBa_13IndexProvider20get_related_entities000Bc_
FN:207,_RNCNCNvNtNtCsXyt6dnSXPr_6motiva5index6search14build_datasets00B9_
FN:214,_RNCNCNvNtNtCsXyt6dnSXPr_6motiva5index6search14build_datasets0s_0B9_
FN:171,_RNCNvNtNtCsXyt6dnSXPr_6motiva5index6search11build_query0B7_
FN:183,_RNCNvNtNtCsXyt6dnSXPr_6motiva5index6search13build_filters0B7_
FN:232,_RNCNvNtNtCsXyt6dnSXPr_6motiva5index6search13build_shoulds0B7_
FN:203,_RNCNvNtNtCsXyt6dnSXPr_6motiva5index6search14build_datasets0B7_
FN:80,_RNCNvXNtNtCsXyt6dnSXPr_6motiva5index6searchNtB4_21ElasticsearchProviderNtB6_13IndexProvider10get_entity0B8_
FN:124,_RNCNvXNtNtCsXyt6dnSXPr_6motiva5index6searchNtB4_21ElasticsearchProviderNtB6_13IndexProvider20get_related_entities0B8_
FN:35,_RNCNvXNtNtCsXyt6dnSXPr_6motiva5index6searchNtB4_21ElasticsearchProviderNtB6_13IndexProvider6health0B8_
FN:40,_RNCNvXNtNtCsXyt6dnSXPr_6motiva5index6searchNtB4_21ElasticsearchProviderNtB6_13IndexProvider6search0B8_
FN:171,_RNvNtNtCsXyt6dnSXPr_6motiva5index6search11build_query
FN:223,_RNvNtNtCsXyt6dnSXPr_6motiva5index6search12build_topics
FN:183,_RNvNtNtCsXyt6dnSXPr_6motiva5index6search13build_filters
FN:193,_RNvNtNtCsXyt6dnSXPr_6motiva5index6search13build_schemas
FN:231,_RNvNtNtCsXyt6dnSXPr_6motiva5index6search13build_shoulds
FN:203,_RNvNtNtCsXyt6dnSXPr_6motiva5index6search14build_datasets
FN:283,_RNvNtNtCsXyt6dnSXPr_6motiva5index6search8add_term
FN:80,_RNvXNtNtCsXyt6dnSXPr_6motiva5index6searchNtB2_21ElasticsearchProviderNtB4_13IndexProvider10get_entity
FN:124,_RNvXNtNtCsXyt6dnSXPr_6motiva5index6searchNtB2_21ElasticsearchProviderNtB4_13IndexProvider20get_related_entities
FN:35,_RNvXNtNtCsXyt6dnSXPr_6motiva5index6searchNtB2_21ElasticsearchProviderNtB4_13IndexProvider6health
FN:40,_RNvXNtNtCsXyt6dnSXPr_6motiva5index6searchNtB2_21ElasticsearchProviderNtB4_13IndexProvider6search
FN:319,_RNvNtNtNtCsXyt6dnSXPr_6motiva5index6search5testss_20resolve_schema_chain
FN:294,_RNvNtNtCsXyt6dnSXPr_6motiva5index6search15resolve_schemas
FNDA:0,_RNCNCNCNvXNtNtCsXyt6dnSXPr_6motiva5index6searchNtB8_21ElasticsearchProviderNtBa_13IndexProvider20get_related_entities000Bc_
FNDA:0,_RNCNCNvNtNtCsXyt6dnSXPr_6motiva5index6search14build_datasets00B9_
FNDA:0,_RNCNCNvNtNtCsXyt6dnSXPr_6motiva5index6search14build_datasets0s_0B9_
FNDA:0,_RNCNvNtNtCsXyt6dnSXPr_6motiva5index6search11build_query0B7_
FNDA:0,_RNCNvNtNtCsXyt6dnSXPr_6motiva5index6search13build_filters0B7_
FNDA:0,_RNCNvNtNtCsXyt6dnSXPr_6motiva5index6search13build_shoulds0B7_
FNDA:0,_RNCNvNtNtCsXyt6dnSXPr_6motiva5index6search14build_datasets0B7_
FNDA:0,_RNCNvXNtNtCsXyt6dnSXPr_6motiva5index6searchNtB4_21ElasticsearchProviderNtB6_13IndexProvider10get_entity0B8_
FNDA:0,_RNCNvXNtNtCsXyt6dnSXPr_6motiva5index6searchNtB4_21ElasticsearchProviderNtB6_13IndexProvider20get_related_entities0B8_
FNDA:0,_RNCNvXNtNtCsXyt6dnSXPr_6motiva5index6searchNtB4_21ElasticsearchProviderNtB6_13IndexProvider6health0B8_
FNDA:0,_RNCNvXNtNtCsXyt6dnSXPr_6motiva5index6searchNtB4_21ElasticsearchProviderNtB6_13IndexProvider6search0B8_
FNDA:0,_RNvNtNtCsXyt6dnSXPr_6motiva5index6search11build_query
FNDA:0,_RNvNtNtCsXyt6dnSXPr_6motiva5index6search12build_topics
FNDA:0,_RNvNtNtCsXyt6dnSXPr_6motiva5index6search13build_filters
FNDA:0,_RNvNtNtCsXyt6dnSXPr_6motiva5index6search13build_schemas
FNDA:0,_RNvNtNtCsXyt6dnSXPr_6motiva5index6search13build_shoulds
FNDA:0,_RNvNtNtCsXyt6dnSXPr_6motiva5index6search14build_datasets
FNDA:0,_RNvNtNtCsXyt6dnSXPr_6motiva5index6search8add_term
FNDA:0,_RNvXNtNtCsXyt6dnSXPr_6motiva5index6searchNtB2_21ElasticsearchProviderNtB4_13IndexProvider10get_entity
FNDA:0,_RNvXNtNtCsXyt6dnSXPr_6motiva5index6searchNtB2_21ElasticsearchProviderNtB4_13IndexProvider20get_related_entities
FNDA:0,_RNvXNtNtCsXyt6dnSXPr_6motiva5index6searchNtB2_21ElasticsearchProviderNtB4_13IndexProvider6health
FNDA:0,_RNvXNtNtCsXyt6dnSXPr_6motiva5index6searchNtB2_21ElasticsearchProviderNtB4_13IndexProvider6search
FNDA:1,_RNvNtNtNtCsXyt6dnSXPr_6motiva5index6search5testss_20resolve_schema_chain
FNDA:17,_RNvNtNtCsXyt6dnSXPr_6motiva5index6search15resolve_schemas
FNF:24
FNH:2
DA:35,0
DA:37,0
DA:40,0
DA:77,0
DA:80,0
DA:121,0
DA:124,0
DA:127,0
DA:165,0
DA:168,0
DA:171,0
DA:172,0
DA:173,0
DA:174,0
DA:175,0
DA:176,0
DA:177,0
DA:181,0
DA:183,0
DA:184,0
DA:186,0
DA:187,0
DA:188,0
DA:190,0
DA:191,0
DA:193,0
DA:194,0
DA:195,0
DA:196,0
DA:198,0
DA:200,0
DA:201,0
DA:203,0
DA:204,0
DA:205,0
DA:207,0
DA:210,0
DA:211,0
DA:212,0
DA:213,0
DA:214,0
DA:215,0
DA:217,0
DA:218,0
DA:219,0
DA:220,0
DA:221,0
DA:223,0
DA:224,0
DA:225,0
DA:226,0
DA:227,0
DA:228,0
DA:229,0
DA:231,0
DA:232,0
DA:233,0
DA:235,0
DA:236,0
DA:237,0
DA:238,0
DA:239,0
DA:240,0
DA:241,0
DA:242,0
DA:243,0
DA:244,0
DA:245,0
DA:246,0
DA:248,0
DA:249,0
DA:250,0
DA:251,0
DA:252,0
DA:253,0
DA:254,0
DA:255,0
DA:256,0
DA:258,0
DA:260,0
DA:261,0
DA:262,0
DA:263,0
DA:265,0
DA:266,0
DA:267,0
DA:268,0
DA:269,0
DA:270,0
DA:273,0
DA:274,0
DA:275,0
DA:276,0
DA:277,0
DA:280,0
DA:281,0
DA:283,0
DA:284,0
DA:285,0
DA:286,0
DA:287,0
DA:288,0
DA:292,0
DA:294,17
DA:295,17
DA:297,17
DA:298,17
DA:299,1
DA:300,16
DA:302,16
DA:303,7
DA:304,9
DA:306,28
DA:307,12
DA:309,0
DA:311,16
DA:312,17
DA:319,1
DA:320,1
DA:321,1
DA:322,1
DA:323,1
DA:324,1
DA:325,1
BRF:0
BRH:0
LF:134
LH:20
end_of_record
SF:/Users/apognu/code/personal/motiva/src/lib.rs
FN:24,_RINvCsXyt6dnSXPr_6motiva10entrypointpEB2_
FN:27,_RNCINvCsXyt6dnSXPr_6motiva10entrypointpE0B4_
FNDA:0,_RINvCsXyt6dnSXPr_6motiva10entrypointpEB2_
FNDA:0,_RNCINvCsXyt6dnSXPr_6motiva10entrypointpE0B4_
FNF:2
FNH:0
DA:24,0
DA:25,0
DA:26,0
DA:27,0
DA:28,0
DA:30,0
DA:31,0
DA:32,0
DA:33,0
DA:34,0
DA:36,0
DA:38,0
DA:40,0
DA:42,0
DA:44,0
DA:46,0
DA:47,0
DA:48,0
DA:50,0
DA:51,0
BRF:0
BRH:0
LF:20
LH:0
end_of_record
SF:/Users/apognu/code/personal/motiva/src/main.rs
FN:12,_RNCNCNvCs9qxkc7ZQHt1_6motiva8shutdown00B5_
FN:16,_RNCNCNvCs9qxkc7ZQHt1_6motiva8shutdown0s_0B5_
FN:7,_RNCNvCs9qxkc7ZQHt1_6motiva4main0B3_
FN:11,_RNCNvCs9qxkc7ZQHt1_6motiva8shutdown0B3_
FN:7,_RNvCs9qxkc7ZQHt1_6motiva4main
FN:11,_RNvCs9qxkc7ZQHt1_6motiva8shutdown
FNDA:0,_RNCNCNvCs9qxkc7ZQHt1_6motiva8shutdown00B5_
FNDA:0,_RNCNCNvCs9qxkc7ZQHt1_6motiva8shutdown0s_0B5_
FNDA:0,_RNCNvCs9qxkc7ZQHt1_6motiva4main0B3_
FNDA:0,_RNCNvCs9qxkc7ZQHt1_6motiva8shutdown0B3_
FNDA:0,_RNvCs9qxkc7ZQHt1_6motiva4main
FNDA:0,_RNvCs9qxkc7ZQHt1_6motiva8shutdown
FNF:6
FNH:0
DA:7,0
DA:8,0
DA:9,0
DA:11,0
DA:12,0
DA:13,0
DA:14,0
DA:16,0
DA:17,0
DA:18,0
DA:19,0
DA:20,0
DA:21,0
DA:23,0
DA:24,0
DA:25,0
DA:27,0
BRF:0
BRH:0
LF:22
LH:0
end_of_record
SF:/Users/apognu/code/personal/motiva/src/matching/comparers.rs
FN:153,_RNvNtNtNtCsXyt6dnSXPr_6motiva8matching9comparers5testss_24is_levenshtein_plausible
FN:138,_RINvNtNtCsXyt6dnSXPr_6motiva8matching9comparers11count_partsNtNtCsiTraAjBDcu4_5alloc6string6StringEB6_
FN:138,_RINvNtNtCsXyt6dnSXPr_6motiva8matching9comparers11count_partsReEB6_
FN:7,_RINvNtNtCsXyt6dnSXPr_6motiva8matching9comparers11is_disjointNtCscaMGBGdgLYs_11compact_str13CompactStringEB6_
FN:7,_RINvNtNtCsXyt6dnSXPr_6motiva8matching9comparers11is_disjointNtNtCsiTraAjBDcu4_5alloc6string6StringEB6_
FN:82,_RINvNtNtCsXyt6dnSXPr_6motiva8matching9comparers16align_name_partsNtNtCsiTraAjBDcu4_5alloc6string6StringEB6_
FN:82,_RINvNtNtCsXyt6dnSXPr_6motiva8matching9comparers16align_name_partsReEB6_
FN:96,_RNCINvNtNtCsXyt6dnSXPr_6motiva8matching9comparers16align_name_partsNtNtCsiTraAjBDcu4_5alloc6string6StringE0B8_
FN:103,_RNCINvNtNtCsXyt6dnSXPr_6motiva8matching9comparers16align_name_partsNtNtCsiTraAjBDcu4_5alloc6string6StringEs_0B8_
FN:96,_RNCINvNtNtCsXyt6dnSXPr_6motiva8matching9comparers16align_name_partsReE0B8_
FN:103,_RNCINvNtNtCsXyt6dnSXPr_6motiva8matching9comparers16align_name_partsReEs_0B8_
FN:24,_RNvNtNtCsXyt6dnSXPr_6motiva8matching9comparers17is_disjoint_chars
FN:61,_RNvNtNtCsXyt6dnSXPr_6motiva8matching9comparers22levenshtein_similarity
FN:50,_RNvNtNtCsXyt6dnSXPr_6motiva8matching9comparers24is_levenshtein_plausible
FN:38,_RNvNtNtCsXyt6dnSXPr_6motiva8matching9comparers28compare_name_phonetic_tuples
FN:57,_RNvNtNtCsXyt6dnSXPr_6motiva8matching9comparers30default_levenshtein_similarity
FN:160,_RNCNvNtNtNtCsXyt6dnSXPr_6motiva8matching9comparers5testss_16align_name_parts0B9_
FNDA:1,_RNvNtNtNtCsXyt6dnSXPr_6motiva8matching9comparers5testss_24is_levenshtein_plausible
FNDA:24,_RINvNtNtCsXyt6dnSXPr_6motiva8matching9comparers11count_partsNtNtCsiTraAjBDcu4_5alloc6string6StringEB6_
FNDA:4,_RINvNtNtCsXyt6dnSXPr_6motiva8matching9comparers11count_partsReEB6_
FNDA:94,_RINvNtNtCsXyt6dnSXPr_6motiva8matching9comparers11is_disjointNtCscaMGBGdgLYs_11compact_str13CompactStringEB6_
FNDA:103,_RINvNtNtCsXyt6dnSXPr_6motiva8matching9comparers11is_disjointNtNtCsiTraAjBDcu4_5alloc6string6StringEB6_
FNDA:12,_RINvNtNtCsXyt6dnSXPr_6motiva8matching9comparers16align_name_partsNtNtCsiTraAjBDcu4_5alloc6string6StringEB6_
FNDA:2,_RINvNtNtCsXyt6dnSXPr_6motiva8matching9comparers16align_name_partsReEB6_
FNDA:68,_RNCINvNtNtCsXyt6dnSXPr_6motiva8matching9comparers16align_name_partsNtNtCsiTraAjBDcu4_5alloc6string6StringE0B8_
FNDA:8,_RNCINvNtNtCsXyt6dnSXPr_6motiva8matching9comparers16align_name_partsNtNtCsiTraAjBDcu4_5alloc6string6StringEs_0B8_
FNDA:18,_RNCINvNtNtCsXyt6dnSXPr_6motiva8matching9comparers16align_name_partsReE0B8_
FNDA:2,_RNCINvNtNtCsXyt6dnSXPr_6motiva8matching9comparers16align_name_partsReEs_0B8_
FNDA:26,_RNvNtNtCsXyt6dnSXPr_6motiva8matching9comparers17is_disjoint_chars
FNDA:32,_RNvNtNtCsXyt6dnSXPr_6motiva8matching9comparers22levenshtein_similarity
FNDA:107,_RNvNtNtCsXyt6dnSXPr_6motiva8matching9comparers24is_levenshtein_plausible
FNDA:43,_RNvNtNtCsXyt6dnSXPr_6motiva8matching9comparers28compare_name_phonetic_tuples
FNDA:18,_RNvNtNtCsXyt6dnSXPr_6motiva8matching9comparers30default_levenshtein_similarity
FNDA:1,_RNCNvNtNtNtCsXyt6dnSXPr_6motiva8matching9comparers5testss_16align_name_parts0B9_
FNF:12
FNH:12
DA:7,197
DA:8,197
DA:9,197
DA:11,197
DA:13,197
DA:15,341
DA:16,203
DA:17,59
DA:18,144
DA:21,138
DA:22,197
DA:24,26
DA:25,26
DA:27,26
DA:29,38
DA:30,27
DA:31,15
DA:32,12
DA:35,11
DA:36,26
DA:38,43
DA:39,43
DA:40,11
DA:41,32
DA:43,32
DA:44,15
DA:45,17
DA:47,17
DA:48,43
DA:50,107
DA:51,107
DA:52,107
DA:54,107
DA:55,107
DA:57,18
DA:58,18
DA:59,18
DA:61,32
DA:62,32
DA:63,0
DA:64,32
DA:66,32
DA:67,32
DA:69,32
DA:70,4
DA:71,28
DA:73,28
DA:75,28
DA:76,10
DA:77,18
DA:79,18
DA:80,32
DA:82,14
DA:83,14
DA:84,14
DA:86,14
DA:87,0
DA:88,14
DA:90,14
DA:91,14
DA:93,14
DA:94,14
DA:95,14
DA:96,86
DA:97,86
DA:99,86
DA:100,86
DA:101,14
DA:103,14
DA:105,14
DA:106,14
DA:108,35
DA:109,21
DA:110,21
DA:112,42
DA:113,21
DA:114,21
DA:115,21
DA:116,21
DA:117,21
DA:118,21
DA:121,14
DA:122,7
DA:123,7
DA:125,7
DA:127,7
DA:128,7
DA:130,7
DA:131,0
DA:132,7
DA:134,7
DA:135,14
DA:138,28
DA:139,28
DA:140,98
DA:141,70
DA:142,70
DA:143,28
DA:144,28
DA:153,1
DA:154,1
DA:155,1
DA:156,1
DA:160,1
DA:161,1
DA:163,1
DA:164,1
DA:165,1
DA:166,1
DA:168,3
DA:169,2
DA:170,2
DA:172,2
BRF:0
BRH:0
LF:115
LH:112
end_of_record
SF:/Users/apognu/code/personal/motiva/src/matching/extractors.rs
FN:123,_RINvNtNtCsXyt6dnSXPr_6motiva8matching10extractors10name_partsINtNtNtCsaNl6UpbT7bw_4core5slice4iter4IterNtNtCsiTraAjBDcu4_5alloc6string6StringEB1D_EB6_
FN:70,_RINvNtNtCsXyt6dnSXPr_6motiva8matching10extractors13phonetic_nameINtNtNtCsaNl6UpbT7bw_4core5slice4iter4IterReEB1G_EB6_
FN:8,_RINvNtNtCsXyt6dnSXPr_6motiva8matching10extractors14tokenize_namesINtNtNtCsaNl6UpbT7bw_4core5slice4iter4IterNtNtCsiTraAjBDcu4_5alloc6string6StringEB1H_EB6_
FN:8,_RINvNtNtCsXyt6dnSXPr_6motiva8matching10extractors14tokenize_namesINtNtNtCsaNl6UpbT7bw_4core5slice4iter4IterReEB1H_EB6_
FN:148,_RINvNtNtCsXyt6dnSXPr_6motiva8matching10extractors15extract_numbersINtNtNtCsaNl6UpbT7bw_4core5slice4iter4IterNtNtCsiTraAjBDcu4_5alloc6string6StringEB1I_EB6_
FN:111,_RINvNtNtCsXyt6dnSXPr_6motiva8matching10extractors15name_parts_flatINtNtNtCsaNl6UpbT7bw_4core5slice4iter4IterNtNtCsiTraAjBDcu4_5alloc6string6StringEB1I_EB6_
FN:111,_RINvNtNtCsXyt6dnSXPr_6motiva8matching10extractors15name_parts_flatINtNtNtCsaNl6UpbT7bw_4core5slice4iter4IterReEB1I_EB6_
FN:78,_RINvNtNtCsXyt6dnSXPr_6motiva8matching10extractors21phonetic_names_tuplesINtNtNtCsaNl6UpbT7bw_4core5slice4iter4IterNtNtCsiTraAjBDcu4_5alloc6string6StringEB1O_EB6_
FN:98,_RINvNtNtCsXyt6dnSXPr_6motiva8matching10extractors9name_keysINtNtNtCsaNl6UpbT7bw_4core5slice4iter4IterReEB1B_EB6_
FN:129,_RNCINvNtNtCsXyt6dnSXPr_6motiva8matching10extractors10name_partsINtNtNtCsaNl6UpbT7bw_4core5slice4iter4IterNtNtCsiTraAjBDcu4_5alloc6string6StringEB1F_E0B8_
FN:23,_RNCINvNtNtCsXyt6dnSXPr_6motiva8matching10extractors11clean_namesINtNtNtCsaNl6UpbT7bw_4core5slice4iter4IterNtNtCsiTraAjBDcu4_5alloc6string6StringEB1G_E0B8_
FN:75,_RNCINvNtNtCsXyt6dnSXPr_6motiva8matching10extractors13phonetic_nameINtNtNtCsaNl6UpbT7bw_4core5slice4iter4IterReEB1I_E0B8_
FN:13,_RNCINvNtNtCsXyt6dnSXPr_6motiva8matching10extractors14tokenize_namesINtNtNtCsaNl6UpbT7bw_4core5slice4iter4IterNtNtCsiTraAjBDcu4_5alloc6string6StringEB1J_E0B8_
FN:13,_RNCINvNtNtCsXyt6dnSXPr_6motiva8matching10extractors14tokenize_namesINtNtNtCsaNl6UpbT7bw_4core5slice4iter4IterReEB1J_E0B8_
FN:153,_RNCINvNtNtCsXyt6dnSXPr_6motiva8matching10extractors15extract_numbersINtNtNtCsaNl6UpbT7bw_4core5slice4iter4IterNtNtCsiTraAjBDcu4_5alloc6string6StringEB1K_E0B8_
FN:118,_RNCINvNtNtCsXyt6dnSXPr_6motiva8matching10extractors15name_parts_flatINtNtNtCsaNl6UpbT7bw_4core5slice4iter4IterNtNtCsiTraAjBDcu4_5alloc6string6StringEB1K_E0B8_
FN:119,_RNCINvNtNtCsXyt6dnSXPr_6motiva8matching10extractors15name_parts_flatINtNtNtCsaNl6UpbT7bw_4core5slice4iter4IterNtNtCsiTraAjBDcu4_5alloc6string6StringEB1K_Es_0B8_
FN:118,_RNCINvNtNtCsXyt6dnSXPr_6motiva8matching10extractors15name_parts_flatINtNtNtCsaNl6UpbT7bw_4core5slice4iter4IterReEB1K_E0B8_
FN:119,_RNCINvNtNtCsXyt6dnSXPr_6motiva8matching10extractors15name_parts_flatINtNtNtCsaNl6UpbT7bw_4core5slice4iter4IterReEB1K_Es_0B8_
FN:45,_RNCINvNtNtCsXyt6dnSXPr_6motiva8matching10extractors19clean_address_partsINtNtNtCsaNl6UpbT7bw_4core5slice4iter4IterNtNtCsiTraAjBDcu4_5alloc6string6StringEB1O_E0B8_
FN:34,_RNCINvNtNtCsXyt6dnSXPr_6motiva8matching10extractors19clean_literal_namesINtNtNtCsaNl6UpbT7bw_4core5slice4iter4IterNtNtCsiTraAjBDcu4_5alloc6string6StringEB1O_E0B8_
FN:65,_RNCINvNtNtCsXyt6dnSXPr_6motiva8matching10extractors20tokenize_clean_namesINtNtNtCsaNl6UpbT7bw_4core5slice4iter4IterReEB1P_E0B8_
FN:66,_RNCINvNtNtCsXyt6dnSXPr_6motiva8matching10extractors20tokenize_clean_namesINtNtNtCsaNl6UpbT7bw_4core5slice4iter4IterReEB1P_Es_0B8_
FN:65,_RNCINvNtNtCsXyt6dnSXPr_6motiva8matching10extractors20tokenize_clean_namesINtNtNtNtCsaNl6UpbT7bw_4core4iter7sources4once4OnceRNtNtCsiTraAjBDcu4_5alloc6string6StringEB1Z_E0B8_
FN:66,_RNCINvNtNtCsXyt6dnSXPr_6motiva8matching10extractors20tokenize_clean_namesINtNtNtNtCsaNl6UpbT7bw_4core4iter7sources4once4OnceRNtNtCsiTraAjBDcu4_5alloc6string6StringEB1Z_Es_0B8_
FN:84,_RNCINvNtNtCsXyt6dnSXPr_6motiva8matching10extractors21phonetic_names_tuplesINtNtNtCsaNl6UpbT7bw_4core5slice4iter4IterNtNtCsiTraAjBDcu4_5alloc6string6StringEB1Q_E0B8_
FN:103,_RNCINvNtNtCsXyt6dnSXPr_6motiva8matching10extractors9name_keysINtNtNtCsaNl6UpbT7bw_4core5slice4iter4IterReEB1D_E0B8_
FN:130,_RNCNCINvNtNtCsXyt6dnSXPr_6motiva8matching10extractors10name_partsINtNtNtCsaNl6UpbT7bw_4core5slice4iter4IterNtNtCsiTraAjBDcu4_5alloc6string6StringEB1H_E00Ba_
FN:23,_RNCNCINvNtNtCsXyt6dnSXPr_6motiva8matching10extractors11clean_namesINtNtNtCsaNl6UpbT7bw_4core5slice4iter4IterNtNtCsiTraAjBDcu4_5alloc6string6StringEB1I_E00Ba_
FN:75,_RNCNCINvNtNtCsXyt6dnSXPr_6motiva8matching10extractors13phonetic_nameINtNtNtCsaNl6UpbT7bw_4core5slice4iter4IterReEB1K_E00Ba_
FN:153,_RNCNCINvNtNtCsXyt6dnSXPr_6motiva8matching10extractors15extract_numbersINtNtNtCsaNl6UpbT7bw_4core5slice4iter4IterNtNtCsiTraAjBDcu4_5alloc6string6StringEB1M_E00Ba_
FN:119,_RNCNCINvNtNtCsXyt6dnSXPr_6motiva8matching10extractors15name_parts_flatINtNtNtCsaNl6UpbT7bw_4core5slice4iter4IterNtNtCsiTraAjBDcu4_5alloc6string6StringEB1M_Es_00Ba_
FN:119,_RNCNCINvNtNtCsXyt6dnSXPr_6motiva8matching10extractors15name_parts_flatINtNtNtCsaNl6UpbT7bw_4core5slice4iter4IterReEB1M_Es_00Ba_
FN:49,_RNCNCINvNtNtCsXyt6dnSXPr_6motiva8matching10extractors19clean_address_partsINtNtNtCsaNl6UpbT7bw_4core5slice4iter4IterNtNtCsiTraAjBDcu4_5alloc6string6StringEB1Q_E00Ba_
FN:34,_RNCNCINvNtNtCsXyt6dnSXPr_6motiva8matching10extractors19clean_literal_namesINtNtNtCsaNl6UpbT7bw_4core5slice4iter4IterNtNtCsiTraAjBDcu4_5alloc6string6StringEB1Q_E00Ba_
FN:66,_RNCNCINvNtNtCsXyt6dnSXPr_6motiva8matching10extractors20tokenize_clean_namesINtNtNtCsaNl6UpbT7bw_4core5slice4iter4IterReEB1R_Es_00Ba_
FN:66,_RNCNCINvNtNtCsXyt6dnSXPr_6motiva8matching10extractors20tokenize_clean_namesINtNtNtNtCsaNl6UpbT7bw_4core4iter7sources4once4OnceRNtNtCsiTraAjBDcu4_5alloc6string6StringEB21_Es_00Ba_
FN:85,_RNCNCINvNtNtCsXyt6dnSXPr_6motiva8matching10extractors21phonetic_names_tuplesINtNtNtCsaNl6UpbT7bw_4core5slice4iter4IterNtNtCsiTraAjBDcu4_5alloc6string6StringEB1S_E00Ba_
FN:86,_RNCNCINvNtNtCsXyt6dnSXPr_6motiva8matching10extractors21phonetic_names_tuplesINtNtNtCsaNl6UpbT7bw_4core5slice4iter4IterNtNtCsiTraAjBDcu4_5alloc6string6StringEB1S_E0s_0Ba_
FN:104,_RNCNCINvNtNtCsXyt6dnSXPr_6motiva8matching10extractors9name_keysINtNtNtCsaNl6UpbT7bw_4core5slice4iter4IterReEB1F_E00Ba_
FN:130,_RNCNCNCINvNtNtCsXyt6dnSXPr_6motiva8matching10extractors10name_partsINtNtNtCsaNl6UpbT7bw_4core5slice4iter4IterNtNtCsiTraAjBDcu4_5alloc6string6StringEB1J_E000Bc_
FN:146,_RNCNvNtNtCsXyt6dnSXPr_6motiva8matching10extractors13NUMBERS_REGEX0B7_
FN:59,_RINvNtNtCsXyt6dnSXPr_6motiva8matching10extractors20tokenize_clean_namesINtNtNtCsaNl6UpbT7bw_4core5slice4iter4IterReEB1N_EB6_
FN:191,_RNvNtNtNtCsXyt6dnSXPr_6motiva8matching10extractors5testss_10name_parts
FN:177,_RNvNtNtNtCsXyt6dnSXPr_6motiva8matching10extractors5testss_13phonetic_name
FN:163,_RNvNtNtNtCsXyt6dnSXPr_6motiva8matching10extractors5testss_14tokenize_names
FN:184,_RNvNtNtNtCsXyt6dnSXPr_6motiva8matching10extractors5testss_9name_keys
FN:17,_RINvNtNtCsXyt6dnSXPr_6motiva8matching10extractors11clean_namesINtNtNtCsaNl6UpbT7bw_4core5slice4iter4IterNtNtCsiTraAjBDcu4_5alloc6string6StringEB1E_EB6_
FN:136,_RNvNtNtCsXyt6dnSXPr_6motiva8matching10extractors9flip_date
FN:164,_RNCNvNtNtNtCsXyt6dnSXPr_6motiva8matching10extractors5testss_14tokenize_names0B9_
FN:39,_RINvNtNtCsXyt6dnSXPr_6motiva8matching10extractors19clean_address_partsINtNtNtCsaNl6UpbT7bw_4core5slice4iter4IterNtNtCsiTraAjBDcu4_5alloc6string6StringEB1M_EB6_
FN:59,_RINvNtNtCsXyt6dnSXPr_6motiva8matching10extractors20tokenize_clean_namesINtNtNtNtCsaNl6UpbT7bw_4core4iter7sources4once4OnceRNtNtCsiTraAjBDcu4_5alloc6string6StringEB1X_EB6_
FN:28,_RINvNtNtCsXyt6dnSXPr_6motiva8matching10extractors19clean_literal_namesINtNtNtCsaNl6UpbT7bw_4core5slice4iter4IterNtNtCsiTraAjBDcu4_5alloc6string6StringEB1M_EB6_
FNDA:18,_RINvNtNtCsXyt6dnSXPr_6motiva8matching10extractors10name_partsINtNtNtCsaNl6UpbT7bw_4core5slice4iter4IterNtNtCsiTraAjBDcu4_5alloc6string6StringEB1D_EB6_
FNDA:1,_RINvNtNtCsXyt6dnSXPr_6motiva8matching10extractors13phonetic_nameINtNtNtCsaNl6UpbT7bw_4core5slice4iter4IterReEB1G_EB6_
FNDA:299,_RINvNtNtCsXyt6dnSXPr_6motiva8matching10extractors14tokenize_namesINtNtNtCsaNl6UpbT7bw_4core5slice4iter4IterNtNtCsiTraAjBDcu4_5alloc6string6StringEB1H_EB6_
FNDA:4,_RINvNtNtCsXyt6dnSXPr_6motiva8matching10extractors14tokenize_namesINtNtNtCsaNl6UpbT7bw_4core5slice4iter4IterReEB1H_EB6_
FNDA:58,_RINvNtNtCsXyt6dnSXPr_6motiva8matching10extractors15extract_numbersINtNtNtCsaNl6UpbT7bw_4core5slice4iter4IterNtNtCsiTraAjBDcu4_5alloc6string6StringEB1I_EB6_
FNDA:265,_RINvNtNtCsXyt6dnSXPr_6motiva8matching10extractors15name_parts_flatINtNtNtCsaNl6UpbT7bw_4core5slice4iter4IterNtNtCsiTraAjBDcu4_5alloc6string6StringEB1I_EB6_
FNDA:1,_RINvNtNtCsXyt6dnSXPr_6motiva8matching10extractors15name_parts_flatINtNtNtCsaNl6UpbT7bw_4core5slice4iter4IterReEB1I_EB6_
FNDA:16,_RINvNtNtCsXyt6dnSXPr_6motiva8matching10extractors21phonetic_names_tuplesINtNtNtCsaNl6UpbT7bw_4core5slice4iter4IterNtNtCsiTraAjBDcu4_5alloc6string6StringEB1O_EB6_
FNDA:1,_RINvNtNtCsXyt6dnSXPr_6motiva8matching10extractors9name_keysINtNtNtCsaNl6UpbT7bw_4core5slice4iter4IterReEB1B_EB6_
FNDA:23,_RNCINvNtNtCsXyt6dnSXPr_6motiva8matching10extractors10name_partsINtNtNtCsaNl6UpbT7bw_4core5slice4iter4IterNtNtCsiTraAjBDcu4_5alloc6string6StringEB1F_E0B8_
FNDA:56,_RNCINvNtNtCsXyt6dnSXPr_6motiva8matching10extractors11clean_namesINtNtNtCsaNl6UpbT7bw_4core5slice4iter4IterNtNtCsiTraAjBDcu4_5alloc6string6StringEB1G_E0B8_
FNDA:3,_RNCINvNtNtCsXyt6dnSXPr_6motiva8matching10extractors13phonetic_nameINtNtNtCsaNl6UpbT7bw_4core5slice4iter4IterReEB1I_E0B8_
FNDA:577,_RNCINvNtNtCsXyt6dnSXPr_6motiva8matching10extractors14tokenize_namesINtNtNtCsaNl6UpbT7bw_4core5slice4iter4IterNtNtCsiTraAjBDcu4_5alloc6string6StringEB1J_E0B8_
FNDA:7,_RNCINvNtNtCsXyt6dnSXPr_6motiva8matching10extractors14tokenize_namesINtNtNtCsaNl6UpbT7bw_4core5slice4iter4IterReEB1J_E0B8_
FNDA:53,_RNCINvNtNtCsXyt6dnSXPr_6motiva8matching10extractors15extract_numbersINtNtNtCsaNl6UpbT7bw_4core5slice4iter4IterNtNtCsiTraAjBDcu4_5alloc6string6StringEB1K_E0B8_
FNDA:841,_RNCINvNtNtCsXyt6dnSXPr_6motiva8matching10extractors15name_parts_flatINtNtNtCsaNl6UpbT7bw_4core5slice4iter4IterNtNtCsiTraAjBDcu4_5alloc6string6StringEB1K_E0B8_
FNDA:841,_RNCINvNtNtCsXyt6dnSXPr_6motiva8matching10extractors15name_parts_flatINtNtNtCsaNl6UpbT7bw_4core5slice4iter4IterNtNtCsiTraAjBDcu4_5alloc6string6StringEB1K_Es_0B8_
FNDA:6,_RNCINvNtNtCsXyt6dnSXPr_6motiva8matching10extractors15name_parts_flatINtNtNtCsaNl6UpbT7bw_4core5slice4iter4IterReEB1K_E0B8_
FNDA:6,_RNCINvNtNtCsXyt6dnSXPr_6motiva8matching10extractors15name_parts_flatINtNtNtCsaNl6UpbT7bw_4core5slice4iter4IterReEB1K_Es_0B8_
FNDA:6,_RNCINvNtNtCsXyt6dnSXPr_6motiva8matching10extractors19clean_address_partsINtNtNtCsaNl6UpbT7bw_4core5slice4iter4IterNtNtCsiTraAjBDcu4_5alloc6string6StringEB1O_E0B8_
FNDA:59,_RNCINvNtNtCsXyt6dnSXPr_6motiva8matching10extractors19clean_literal_namesINtNtNtCsaNl6UpbT7bw_4core5slice4iter4IterNtNtCsiTraAjBDcu4_5alloc6string6StringEB1O_E0B8_
FNDA:3,_RNCINvNtNtCsXyt6dnSXPr_6motiva8matching10extractors20tokenize_clean_namesINtNtNtCsaNl6UpbT7bw_4core5slice4iter4IterReEB1P_E0B8_
FNDA:9,_RNCINvNtNtCsXyt6dnSXPr_6motiva8matching10extractors20tokenize_clean_namesINtNtNtCsaNl6UpbT7bw_4core5slice4iter4IterReEB1P_Es_0B8_
FNDA:12,_RNCINvNtNtCsXyt6dnSXPr_6motiva8matching10extractors20tokenize_clean_namesINtNtNtNtCsaNl6UpbT7bw_4core4iter7sources4once4OnceRNtNtCsiTraAjBDcu4_5alloc6string6StringEB1Z_E0B8_
FNDA:16,_RNCINvNtNtCsXyt6dnSXPr_6motiva8matching10extractors20tokenize_clean_namesINtNtNtNtCsaNl6UpbT7bw_4core4iter7sources4once4OnceRNtNtCsiTraAjBDcu4_5alloc6string6StringEB1Z_Es_0B8_
FNDA:19,_RNCINvNtNtCsXyt6dnSXPr_6motiva8matching10extractors21phonetic_names_tuplesINtNtNtCsaNl6UpbT7bw_4core5slice4iter4IterNtNtCsiTraAjBDcu4_5alloc6string6StringEB1Q_E0B8_
FNDA:1,_RNCINvNtNtCsXyt6dnSXPr_6motiva8matching10extractors9name_keysINtNtNtCsaNl6UpbT7bw_4core5slice4iter4IterReEB1D_E0B8_
FNDA:55,_RNCNCINvNtNtCsXyt6dnSXPr_6motiva8matching10extractors10name_partsINtNtNtCsaNl6UpbT7bw_4core5slice4iter4IterNtNtCsiTraAjBDcu4_5alloc6string6StringEB1H_E00Ba_
FNDA:728,_RNCNCINvNtNtCsXyt6dnSXPr_6motiva8matching10extractors11clean_namesINtNtNtCsaNl6UpbT7bw_4core5slice4iter4IterNtNtCsiTraAjBDcu4_5alloc6string6StringEB1I_E00Ba_
FNDA:7,_RNCNCINvNtNtCsXyt6dnSXPr_6motiva8matching10extractors13phonetic_nameINtNtNtCsaNl6UpbT7bw_4core5slice4iter4IterReEB1K_E00Ba_
FNDA:21,_RNCNCINvNtNtCsXyt6dnSXPr_6motiva8matching10extractors15extract_numbersINtNtNtCsaNl6UpbT7bw_4core5slice4iter4IterNtNtCsiTraAjBDcu4_5alloc6string6StringEB1M_E00Ba_
FNDA:5312,_RNCNCINvNtNtCsXyt6dnSXPr_6motiva8matching10extractors15name_parts_flatINtNtNtCsaNl6UpbT7bw_4core5slice4iter4IterNtNtCsiTraAjBDcu4_5alloc6string6StringEB1M_Es_00Ba_
FNDA:44,_RNCNCINvNtNtCsXyt6dnSXPr_6motiva8matching10extractors15name_parts_flatINtNtNtCsaNl6UpbT7bw_4core5slice4iter4IterReEB1M_Es_00Ba_
FNDA:238,_RNCNCINvNtNtCsXyt6dnSXPr_6motiva8matching10extractors19clean_address_partsINtNtNtCsaNl6UpbT7bw_4core5slice4iter4IterNtNtCsiTraAjBDcu4_5alloc6string6StringEB1Q_E00Ba_
FNDA:734,_RNCNCINvNtNtCsXyt6dnSXPr_6motiva8matching10extractors19clean_literal_namesINtNtNtCsaNl6UpbT7bw_4core5slice4iter4IterNtNtCsiTraAjBDcu4_5alloc6string6StringEB1Q_E00Ba_
FNDA:74,_RNCNCINvNtNtCsXyt6dnSXPr_6motiva8matching10extractors20tokenize_clean_namesINtNtNtCsaNl6UpbT7bw_4core5slice4iter4IterReEB1R_Es_00Ba_
FNDA:92,_RNCNCINvNtNtCsXyt6dnSXPr_6motiva8matching10extractors20tokenize_clean_namesINtNtNtNtCsaNl6UpbT7bw_4core4iter7sources4once4OnceRNtNtCsiTraAjBDcu4_5alloc6string6StringEB21_Es_00Ba_
FNDA:46,_RNCNCINvNtNtCsXyt6dnSXPr_6motiva8matching10extractors21phonetic_names_tuplesINtNtNtCsaNl6UpbT7bw_4core5slice4iter4IterNtNtCsiTraAjBDcu4_5alloc6string6StringEB1S_E00Ba_
FNDA:46,_RNCNCINvNtNtCsXyt6dnSXPr_6motiva8matching10extractors21phonetic_names_tuplesINtNtNtCsaNl6UpbT7bw_4core5slice4iter4IterNtNtCsiTraAjBDcu4_5alloc6string6StringEB1S_E0s_0Ba_
FNDA:2,_RNCNCINvNtNtCsXyt6dnSXPr_6motiva8matching10extractors9name_keysINtNtNtCsaNl6UpbT7bw_4core5slice4iter4IterReEB1F_E00Ba_
FNDA:381,_RNCNCNCINvNtNtCsXyt6dnSXPr_6motiva8matching10extractors10name_partsINtNtNtCsaNl6UpbT7bw_4core5slice4iter4IterNtNtCsiTraAjBDcu4_5alloc6string6StringEB1J_E000Bc_
FNDA:1,_RNCNvNtNtCsXyt6dnSXPr_6motiva8matching10extractors13NUMBERS_REGEX0B7_
FNDA:1,_RINvNtNtCsXyt6dnSXPr_6motiva8matching10extractors20tokenize_clean_namesINtNtNtCsaNl6UpbT7bw_4core5slice4iter4IterReEB1N_EB6_
FNDA:1,_RNvNtNtNtCsXyt6dnSXPr_6motiva8matching10extractors5testss_10name_parts
FNDA:1,_RNvNtNtNtCsXyt6dnSXPr_6motiva8matching10extractors5testss_13phonetic_name
FNDA:1,_RNvNtNtNtCsXyt6dnSXPr_6motiva8matching10extractors5testss_14tokenize_names
FNDA:1,_RNvNtNtNtCsXyt6dnSXPr_6motiva8matching10extractors5testss_9name_keys
FNDA:58,_RINvNtNtCsXyt6dnSXPr_6motiva8matching10extractors11clean_namesINtNtNtCsaNl6UpbT7bw_4core5slice4iter4IterNtNtCsiTraAjBDcu4_5alloc6string6StringEB1E_EB6_
FNDA:8,_RNvNtNtCsXyt6dnSXPr_6motiva8matching10extractors9flip_date
FNDA:1,_RNCNvNtNtNtCsXyt6dnSXPr_6motiva8matching10extractors5testss_14tokenize_names0B9_
FNDA:4,_RINvNtNtCsXyt6dnSXPr_6motiva8matching10extractors19clean_address_partsINtNtNtCsaNl6UpbT7bw_4core5slice4iter4IterNtNtCsiTraAjBDcu4_5alloc6string6StringEB1M_EB6_
FNDA:12,_RINvNtNtCsXyt6dnSXPr_6motiva8matching10extractors20tokenize_clean_namesINtNtNtNtCsaNl6UpbT7bw_4core4iter7sources4once4OnceRNtNtCsiTraAjBDcu4_5alloc6string6StringEB1X_EB6_
FNDA:64,_RINvNtNtCsXyt6dnSXPr_6motiva8matching10extractors19clean_literal_namesINtNtNtCsaNl6UpbT7bw_4core5slice4iter4IterNtNtCsiTraAjBDcu4_5alloc6string6StringEB1M_EB6_
FNF:43
FNH:43
DA:8,303
DA:9,303
DA:10,303
DA:11,303
DA:13,584
DA:14,303
DA:17,58
DA:18,58
DA:19,58
DA:20,58
DA:22,58
DA:23,728
DA:24,58
DA:25,58
DA:28,64
DA:29,64
DA:30,64
DA:31,64
DA:33,64
DA:34,734
DA:35,64
DA:36,64
DA:39,4
DA:40,4
DA:41,4
DA:42,4
DA:44,4
DA:45,6
DA:46,6
DA:47,6
DA:48,6
DA:49,238
DA:50,238
DA:51,18
DA:52,238
DA:53,6
DA:54,6
DA:55,4
DA:56,4
DA:59,13
DA:60,13
DA:61,13
DA:62,13
DA:64,13
DA:65,15
DA:66,166
DA:67,13
DA:68,13
DA:70,1
DA:71,1
DA:72,1
DA:73,1
DA:75,7
DA:76,1
DA:78,16
DA:79,16
DA:80,16
DA:81,16
DA:83,16
DA:84,19
DA:85,46
DA:86,46
DA:87,46
DA:88,46
DA:90,46
DA:92,46
DA:93,19
DA:94,19
DA:95,16
DA:96,16
DA:98,1
DA:99,1
DA:100,1
DA:101,1
DA:103,1
DA:104,2
DA:106,1
DA:107,1
DA:108,1
DA:109,1
DA:111,266
DA:112,266
DA:113,266
DA:114,266
DA:116,266
DA:117,266
DA:118,847
DA:119,5356
DA:120,266
DA:121,266
DA:123,18
DA:124,18
DA:125,18
DA:126,18
DA:128,18
DA:129,23
DA:130,381
DA:131,23
DA:132,23
DA:133,18
DA:134,18
DA:136,8
DA:137,8
DA:138,8
DA:140,8
DA:141,8
DA:143,8
DA:144,8
DA:146,1
DA:148,58
DA:149,58
DA:150,58
DA:151,58
DA:153,58
DA:154,58
DA:163,1
DA:164,1
DA:166,1
DA:168,1
DA:170,1
DA:171,1
DA:172,1
DA:174,1
DA:177,1
DA:178,1
DA:180,1
DA:181,1
DA:184,1
DA:185,1
DA:187,1
DA:188,1
DA:191,1
DA:192,1
DA:194,1
DA:195,1
BRF:0
BRH:0
LF:161
LH:161
end_of_record
SF:/Users/apognu/code/personal/motiva/src/matching/logic_v1.rs
FN:116,_RNCNvNtNtNtCsXyt6dnSXPr_6motiva8matching8logic_v15testss_15logic_v1_person0B9_
FN:173,_RNCNvNtNtNtCsXyt6dnSXPr_6motiva8matching8logic_v15testss_20against_nomenklatura0B9_
FN:25,_RNvXNtNtCsXyt6dnSXPr_6motiva8matching8logic_v1NtB2_7LogicV1NtB4_17MatchingAlgorithm4name
FN:30,_RNvXNtNtCsXyt6dnSXPr_6motiva8matching8logic_v1NtB2_7LogicV1NtB4_17MatchingAlgorithm5score
FN:53,_RNCNvXNtNtCsXyt6dnSXPr_6motiva8matching8logic_v1NtB4_7LogicV1NtB6_17MatchingAlgorithm5score0B8_
FN:62,_RNCNvXNtNtCsXyt6dnSXPr_6motiva8matching8logic_v1NtB4_7LogicV1NtB6_17MatchingAlgorithm5scores0_0B8_
FN:63,_RNCNvXNtNtCsXyt6dnSXPr_6motiva8matching8logic_v1NtB4_7LogicV1NtB6_17MatchingAlgorithm5scores1_0B8_
FN:64,_RNCNvXNtNtCsXyt6dnSXPr_6motiva8matching8logic_v1NtB4_7LogicV1NtB6_17MatchingAlgorithm5scores2_0B8_
FN:65,_RNCNvXNtNtCsXyt6dnSXPr_6motiva8matching8logic_v1NtB4_7LogicV1NtB6_17MatchingAlgorithm5scores3_0B8_
FN:66,_RNCNvXNtNtCsXyt6dnSXPr_6motiva8matching8logic_v1NtB4_7LogicV1NtB6_17MatchingAlgorithm5scores4_0B8_
FN:58,_RNCNvXNtNtCsXyt6dnSXPr_6motiva8matching8logic_v1NtB4_7LogicV1NtB6_17MatchingAlgorithm5scores_0B8_
FN:105,_RNvNtNtNtCsXyt6dnSXPr_6motiva8matching8logic_v15testss_15logic_v1_person
FN:141,_RNvNtNtNtCsXyt6dnSXPr_6motiva8matching8logic_v15testss_15logic_v1_vessel
FN:124,_RNvNtNtNtCsXyt6dnSXPr_6motiva8matching8logic_v15testss_16logic_v1_company
FN:152,_RNvNtNtNtCsXyt6dnSXPr_6motiva8matching8logic_v15testss_24person_name_jaro_winkler
FN:162,_RNvNtNtNtCsXyt6dnSXPr_6motiva8matching8logic_v15testss_26person_name_phonetic_match
FNDA:2,_RNCNvNtNtNtCsXyt6dnSXPr_6motiva8matching8logic_v15testss_15logic_v1_person0B9_
FNDA:1,_RNCNvNtNtNtCsXyt6dnSXPr_6motiva8matching8logic_v15testss_20against_nomenklatura0B9_
FNDA:1,_RNvXNtNtCsXyt6dnSXPr_6motiva8matching8logic_v1NtB2_7LogicV1NtB4_17MatchingAlgorithm4name
FNDA:30,_RNvXNtNtCsXyt6dnSXPr_6motiva8matching8logic_v1NtB2_7LogicV1NtB4_17MatchingAlgorithm5score
FNDA:60,_RNCNvXNtNtCsXyt6dnSXPr_6motiva8matching8logic_v1NtB4_7LogicV1NtB6_17MatchingAlgorithm5score0B8_
FNDA:34,_RNCNvXNtNtCsXyt6dnSXPr_6motiva8matching8logic_v1NtB4_7LogicV1NtB6_17MatchingAlgorithm5scores0_0B8_
FNDA:28,_RNCNvXNtNtCsXyt6dnSXPr_6motiva8matching8logic_v1NtB4_7LogicV1NtB6_17MatchingAlgorithm5scores1_0B8_
FNDA:28,_RNCNvXNtNtCsXyt6dnSXPr_6motiva8matching8logic_v1NtB4_7LogicV1NtB6_17MatchingAlgorithm5scores2_0B8_
FNDA:28,_RNCNvXNtNtCsXyt6dnSXPr_6motiva8matching8logic_v1NtB4_7LogicV1NtB6_17MatchingAlgorithm5scores3_0B8_
FNDA:37,_RNCNvXNtNtCsXyt6dnSXPr_6motiva8matching8logic_v1NtB4_7LogicV1NtB6_17MatchingAlgorithm5scores4_0B8_
FNDA:60,_RNCNvXNtNtCsXyt6dnSXPr_6motiva8matching8logic_v1NtB4_7LogicV1NtB6_17MatchingAlgorithm5scores_0B8_
FNDA:1,_RNvNtNtNtCsXyt6dnSXPr_6motiva8matching8logic_v15testss_15logic_v1_person
FNDA:1,_RNvNtNtNtCsXyt6dnSXPr_6motiva8matching8logic_v15testss_15logic_v1_vessel
FNDA:1,_RNvNtNtNtCsXyt6dnSXPr_6motiva8matching8logic_v15testss_16logic_v1_company
FNDA:1,_RNvNtNtNtCsXyt6dnSXPr_6motiva8matching8logic_v15testss_24person_name_jaro_winkler
FNDA:1,_RNvNtNtNtCsXyt6dnSXPr_6motiva8matching8logic_v15testss_26person_name_phonetic_match
FNF:16
FNH:16
DA:25,1
DA:26,1
DA:27,1
DA:30,30
DA:31,30
DA:32,30
DA:33,30
DA:34,30
DA:35,30
DA:42,30
DA:43,30
DA:44,30
DA:45,30
DA:46,30
DA:47,30
DA:48,30
DA:49,30
DA:51,30
DA:53,60
DA:54,30
DA:58,60
DA:61,30
DA:62,34
DA:63,30
DA:64,30
DA:65,30
DA:66,37
DA:67,30
DA:68,30
DA:71,30
DA:72,30
DA:74,450
DA:75,420
DA:77,420
DA:79,420
DA:81,420
DA:82,13
DA:83,407
DA:86,30
DA:88,30
DA:89,30
DA:105,1
DA:106,1
DA:107,1
DA:108,1
DA:109,1
DA:111,1
DA:113,1
DA:114,1
DA:116,2
DA:120,1
DA:121,1
DA:124,1
DA:125,1
DA:126,1
DA:127,1
DA:128,1
DA:129,1
DA:130,1
DA:132,1
DA:134,1
DA:135,1
DA:136,1
DA:137,1
DA:138,1
DA:141,1
DA:142,1
DA:143,1
DA:145,1
DA:147,1
DA:148,1
DA:149,1
DA:152,1
DA:153,1
DA:154,1
DA:155,1
DA:156,1
DA:158,1
DA:159,1
DA:162,1
DA:163,1
DA:164,1
DA:165,1
DA:166,1
DA:168,1
DA:169,1
DA:173,1
DA:174,1
DA:176,1
DA:177,1
DA:178,1
DA:179,1
DA:180,1
DA:181,1
DA:184,1
DA:185,1
DA:186,1
DA:187,1
DA:188,1
DA:189,1
DA:190,1
DA:191,1
DA:192,1
DA:195,6
DA:196,5
DA:198,25
DA:199,25
DA:201,25
BRF:0
BRH:0
LF:115
LH:115
end_of_record
SF:/Users/apognu/code/personal/motiva/src/matching/matchers/address.rs
FN:85,_RNvNtNtNtNtCsXyt6dnSXPr_6motiva8matching8matchers7address5testss_20address_entity_match
FN:27,_RNCNvXNtNtNtCsXyt6dnSXPr_6motiva8matching8matchers7addressNtB4_18AddressEntityMatchNtB8_7Feature13score_feature0Ba_
FN:57,_RNCNvXNtNtNtCsXyt6dnSXPr_6motiva8matching8matchers7addressNtB4_18AddressEntityMatchNtB8_7Feature13score_features0_0Ba_
FN:58,_RNCNvXNtNtNtCsXyt6dnSXPr_6motiva8matching8matchers7addressNtB4_18AddressEntityMatchNtB8_7Feature13score_features1_0Ba_
FN:35,_RNCNvXNtNtNtCsXyt6dnSXPr_6motiva8matching8matchers7addressNtB4_18AddressEntityMatchNtB8_7Feature13score_features_0Ba_
FN:22,_RNvXNtNtNtCsXyt6dnSXPr_6motiva8matching8matchers7addressNtB2_18AddressEntityMatchNtB6_7Feature13score_feature
FNDA:1,_RNvNtNtNtNtCsXyt6dnSXPr_6motiva8matching8matchers7address5testss_20address_entity_match
FNDA:2,_RNCNvXNtNtNtCsXyt6dnSXPr_6motiva8matching8matchers7addressNtB4_18AddressEntityMatchNtB8_7Feature13score_feature0Ba_
FNDA:6,_RNCNvXNtNtNtCsXyt6dnSXPr_6motiva8matching8matchers7addressNtB4_18AddressEntityMatchNtB8_7Feature13score_features0_0Ba_
FNDA:4,_RNCNvXNtNtNtCsXyt6dnSXPr_6motiva8matching8matchers7addressNtB4_18AddressEntityMatchNtB8_7Feature13score_features1_0Ba_
FNDA:4,_RNCNvXNtNtNtCsXyt6dnSXPr_6motiva8matching8matchers7addressNtB4_18AddressEntityMatchNtB8_7Feature13score_features_0Ba_
FNDA:31,_RNvXNtNtNtCsXyt6dnSXPr_6motiva8matching8matchers7addressNtB2_18AddressEntityMatchNtB6_7Feature13score_feature
FNF:6
FNH:6
DA:22,31
DA:23,31
DA:24,29
DA:25,2
DA:27,2
DA:28,2
DA:29,2
DA:30,2
DA:31,2
DA:32,2
DA:33,2
DA:35,4
DA:36,4
DA:37,4
DA:38,4
DA:39,4
DA:40,4
DA:41,4
DA:43,2
DA:45,2
DA:46,2
DA:47,0
DA:48,2
DA:50,2
DA:51,2
DA:53,2
DA:54,0
DA:55,2
DA:57,6
DA:58,4
DA:60,2
DA:61,2
DA:62,2
DA:64,2
DA:65,2
DA:66,2
DA:68,2
DA:71,2
DA:72,31
DA:85,1
DA:86,1
DA:87,1
DA:89,1
DA:90,1
BRF:0
BRH:0
LF:48
LH:46
end_of_record
SF:/Users/apognu/code/personal/motiva/src/matching/matchers/crypto_wallet.rs
FN:12,_RNvXNtNtNtCsXyt6dnSXPr_6motiva8matching8matchers13crypto_walletNtB2_17CryptoWalletMatchNtB6_7Feature13score_feature
FN:39,_RNvNtNtNtNtCsXyt6dnSXPr_6motiva8matching8matchers13crypto_wallet5testss_19crypto_wallet_match
FNDA:31,_RNvXNtNtNtCsXyt6dnSXPr_6motiva8matching8matchers13crypto_walletNtB2_17CryptoWalletMatchNtB6_7Feature13score_feature
FNDA:1,_RNvNtNtNtNtCsXyt6dnSXPr_6motiva8matching8matchers13crypto_wallet5testss_19crypto_wallet_match
FNF:2
FNH:2
DA:12,31
DA:13,31
DA:14,30
DA:15,1
DA:17,1
DA:18,1
DA:20,1
DA:21,1
DA:22,1
DA:23,0
DA:26,0
DA:27,31
DA:39,1
DA:40,1
DA:41,1
DA:43,1
DA:44,1
BRF:0
BRH:0
LF:17
LH:15
end_of_record
SF:/Users/apognu/code/personal/motiva/src/matching/matchers/identifier.rs
FN:21,_RNvMNtNtNtCsXyt6dnSXPr_6motiva8matching8matchers10identifierNtB2_15IdentifierMatch3new
FN:93,_RNvXs_NtNtNtCsXyt6dnSXPr_6motiva8matching8matchers10identifierNtB4_15IdentifierMatchNtB8_7Feature13score_feature
FN:88,_RNvXs_NtNtNtCsXyt6dnSXPr_6motiva8matching8matchers10identifierNtB4_15IdentifierMatchNtB8_7Feature4name
FN:25,_RINvMNtNtNtCsXyt6dnSXPr_6motiva8matching8matchers10identifierNtB3_15IdentifierMatch14match_propertyNtNtB9_5model12SearchEntityNtB1B_6EntityEB9_
FN:25,_RINvMNtNtNtCsXyt6dnSXPr_6motiva8matching8matchers10identifierNtB3_15IdentifierMatch14match_propertyNtNtB9_5model6EntityNtB1B_12SearchEntityEB9_
FN:33,_RNCINvMNtNtNtCsXyt6dnSXPr_6motiva8matching8matchers10identifierNtB5_15IdentifierMatch14match_propertyNtNtBb_5model12SearchEntityNtB1D_6EntityE0Bb_
FN:71,_RNCINvMNtNtNtCsXyt6dnSXPr_6motiva8matching8matchers10identifierNtB5_15IdentifierMatch14match_propertyNtNtBb_5model12SearchEntityNtB1D_6EntityEs0_0Bb_
FN:80,_RNCINvMNtNtNtCsXyt6dnSXPr_6motiva8matching8matchers10identifierNtB5_15IdentifierMatch14match_propertyNtNtBb_5model12SearchEntityNtB1D_6EntityEs1_0Bb_
FN:70,_RNCINvMNtNtNtCsXyt6dnSXPr_6motiva8matching8matchers10identifierNtB5_15IdentifierMatch14match_propertyNtNtBb_5model12SearchEntityNtB1D_6EntityEs_0Bb_
FN:33,_RNCINvMNtNtNtCsXyt6dnSXPr_6motiva8matching8matchers10identifierNtB5_15IdentifierMatch14match_propertyNtNtBb_5model6EntityNtB1D_12SearchEntityE0Bb_
FN:71,_RNCINvMNtNtNtCsXyt6dnSXPr_6motiva8matching8matchers10identifierNtB5_15IdentifierMatch14match_propertyNtNtBb_5model6EntityNtB1D_12SearchEntityEs0_0Bb_
FN:80,_RNCINvMNtNtNtCsXyt6dnSXPr_6motiva8matching8matchers10identifierNtB5_15IdentifierMatch14match_propertyNtNtBb_5model6EntityNtB1D_12SearchEntityEs1_0Bb_
FN:70,_RNCINvMNtNtNtCsXyt6dnSXPr_6motiva8matching8matchers10identifierNtB5_15IdentifierMatch14match_propertyNtNtBb_5model6EntityNtB1D_12SearchEntityEs_0Bb_
FN:80,_RNCNCINvMNtNtNtCsXyt6dnSXPr_6motiva8matching8matchers10identifierNtB7_15IdentifierMatch14match_propertyNtNtBd_5model12SearchEntityNtB1F_6EntityEs1_00Bd_
FN:80,_RNCNCINvMNtNtNtCsXyt6dnSXPr_6motiva8matching8matchers10identifierNtB7_15IdentifierMatch14match_propertyNtNtBd_5model6EntityNtB1F_12SearchEntityEs1_00Bd_
FNDA:180,_RNvMNtNtNtCsXyt6dnSXPr_6motiva8matching8matchers10identifierNtB2_15IdentifierMatch3new
FNDA:180,_RNvXs_NtNtNtCsXyt6dnSXPr_6motiva8matching8matchers10identifierNtB4_15IdentifierMatchNtB8_7Feature13score_feature
FNDA:180,_RNvXs_NtNtNtCsXyt6dnSXPr_6motiva8matching8matchers10identifierNtB4_15IdentifierMatchNtB8_7Feature4name
FNDA:209,_RINvMNtNtNtCsXyt6dnSXPr_6motiva8matching8matchers10identifierNtB3_15IdentifierMatch14match_propertyNtNtB9_5model12SearchEntityNtB1B_6EntityEB9_
FNDA:206,_RINvMNtNtNtCsXyt6dnSXPr_6motiva8matching8matchers10identifierNtB3_15IdentifierMatch14match_propertyNtNtB9_5model6EntityNtB1B_12SearchEntityEB9_
FNDA:12,_RNCINvMNtNtNtCsXyt6dnSXPr_6motiva8matching8matchers10identifierNtB5_15IdentifierMatch14match_propertyNtNtBb_5model12SearchEntityNtB1D_6EntityE0Bb_
FNDA:259,_RNCINvMNtNtNtCsXyt6dnSXPr_6motiva8matching8matchers10identifierNtB5_15IdentifierMatch14match_propertyNtNtBb_5model12SearchEntityNtB1D_6EntityEs0_0Bb_
FNDA:7,_RNCINvMNtNtNtCsXyt6dnSXPr_6motiva8matching8matchers10identifierNtB5_15IdentifierMatch14match_propertyNtNtBb_5model12SearchEntityNtB1D_6EntityEs1_0Bb_
FNDA:770,_RNCINvMNtNtNtCsXyt6dnSXPr_6motiva8matching8matchers10identifierNtB5_15IdentifierMatch14match_propertyNtNtBb_5model12SearchEntityNtB1D_6EntityEs_0Bb_
FNDA:7,_RNCINvMNtNtNtCsXyt6dnSXPr_6motiva8matching8matchers10identifierNtB5_15IdentifierMatch14match_propertyNtNtBb_5model6EntityNtB1D_12SearchEntityE0Bb_
FNDA:7,_RNCINvMNtNtNtCsXyt6dnSXPr_6motiva8matching8matchers10identifierNtB5_15IdentifierMatch14match_propertyNtNtBb_5model6EntityNtB1D_12SearchEntityEs0_0Bb_
FNDA:1,_RNCINvMNtNtNtCsXyt6dnSXPr_6motiva8matching8matchers10identifierNtB5_15IdentifierMatch14match_propertyNtNtBb_5model6EntityNtB1D_12SearchEntityEs1_0Bb_
FNDA:49,_RNCINvMNtNtNtCsXyt6dnSXPr_6motiva8matching8matchers10identifierNtB5_15IdentifierMatch14match_propertyNtNtBb_5model6EntityNtB1D_12SearchEntityEs_0Bb_
FNDA:7,_RNCNCINvMNtNtNtCsXyt6dnSXPr_6motiva8matching8matchers10identifierNtB7_15IdentifierMatch14match_propertyNtNtBd_5model12SearchEntityNtB1F_6EntityEs1_00Bd_
FNDA:1,_RNCNCINvMNtNtNtCsXyt6dnSXPr_6motiva8matching8matchers10identifierNtB7_15IdentifierMatch14match_propertyNtNtBd_5model6EntityNtB1F_12SearchEntityEs1_00Bd_
FNF:9
FNH:9
DA:21,180
DA:22,180
DA:23,180
DA:25,415
DA:26,415
DA:28,415
DA:29,396
DA:30,19
DA:32,19
DA:33,19
DA:35,11
DA:36,8
DA:38,8
DA:39,0
DA:42,8
DA:43,8
DA:45,22
DA:46,22
DA:47,0
DA:50,341
DA:51,327
DA:52,8
DA:53,8
DA:54,319
DA:58,8
DA:59,0
DA:62,62
DA:63,54
DA:64,0
DA:67,54
DA:68,54
DA:69,54
DA:70,819
DA:71,266
DA:72,54
DA:74,54
DA:77,8
DA:78,8
DA:79,8
DA:80,8
DA:81,8
DA:83,8
DA:84,415
DA:88,180
DA:89,180
DA:90,180
DA:93,180
DA:94,385
DA:95,209
DA:96,3
DA:97,206
DA:98,206
DA:99,1
DA:100,205
DA:103,176
DA:104,180
BRF:0
BRH:0
LF:61
LH:57
end_of_record
SF:/Users/apognu/code/personal/motiva/src/matching/matchers/jaro_winkler.rs
FN:79,_RNCNvNtNtNtNtCsXyt6dnSXPr_6motiva8matching8matchers12jaro_winkler5testss_36jaro_name_parts_against_nomenklatura0Bb_
FN:92,_RNCNvNtNtNtNtCsXyt6dnSXPr_6motiva8matching8matchers12jaro_winkler5testss_45person_name_jaro_winkler_against_nomenklatura0Bb_
FN:19,_RNvXNtNtNtCsXyt6dnSXPr_6motiva8matching8matchers12jaro_winklerNtB2_13JaroNamePartsNtB6_7Feature13score_feature
FN:43,_RNvXs_NtNtNtCsXyt6dnSXPr_6motiva8matching8matchers12jaro_winklerNtB4_21PersonNameJaroWinklerNtB8_7Feature13score_feature
FNDA:1,_RNCNvNtNtNtNtCsXyt6dnSXPr_6motiva8matching8matchers12jaro_winkler5testss_36jaro_name_parts_against_nomenklatura0Bb_
FNDA:1,_RNCNvNtNtNtNtCsXyt6dnSXPr_6motiva8matching8matchers12jaro_winkler5testss_45person_name_jaro_winkler_against_nomenklatura0Bb_
FNDA:78,_RNvXNtNtNtCsXyt6dnSXPr_6motiva8matching8matchers12jaro_winklerNtB2_13JaroNamePartsNtB6_7Feature13score_feature
FNDA:32,_RNvXs_NtNtNtCsXyt6dnSXPr_6motiva8matching8matchers12jaro_winklerNtB4_21PersonNameJaroWinklerNtB8_7Feature13score_feature
FNF:4
FNH:4
DA:19,78
DA:20,78
DA:22,213
DA:23,135
DA:25,355
DA:26,355
DA:27,355
DA:28,244
DA:31,355
DA:32,111
DA:33,244
DA:36,135
DA:39,78
DA:40,78
DA:43,32
DA:44,32
DA:45,23
DA:46,9
DA:48,9
DA:49,9
DA:51,9
DA:53,12
DA:54,12
DA:55,12
DA:57,12
DA:58,6
DA:59,6
DA:61,12
DA:64,9
DA:65,32
DA:79,1
DA:80,1
DA:82,1
DA:83,1
DA:85,1
DA:87,1
DA:92,1
DA:93,1
DA:95,1
DA:96,1
DA:98,1
DA:100,1
BRF:0
BRH:0
LF:42
LH:42
end_of_record
SF:/Users/apognu/code/personal/motiva/src/matching/matchers/match_.rs
FN:18,_RNvMNtNtNtCsXyt6dnSXPr_6motiva8matching8matchers6match_NtB2_11SimpleMatch3new
FN:28,_RNvXs_NtNtNtCsXyt6dnSXPr_6motiva8matching8matchers6match_NtB4_11SimpleMatchNtB8_7Feature13score_feature
FN:24,_RNvXs_NtNtNtCsXyt6dnSXPr_6motiva8matching8matchers6match_NtB4_11SimpleMatchNtB8_7Feature4name
FNDA:60,_RNvMNtNtNtCsXyt6dnSXPr_6motiva8matching8matchers6match_NtB2_11SimpleMatch3new
FNDA:60,_RNvXs_NtNtNtCsXyt6dnSXPr_6motiva8matching8matchers6match_NtB4_11SimpleMatchNtB8_7Feature13score_feature
FNDA:60,_RNvXs_NtNtNtCsXyt6dnSXPr_6motiva8matching8matchers6match_NtB4_11SimpleMatchNtB8_7Feature4name
FNF:3
FNH:3
DA:18,60
DA:19,60
DA:20,60
DA:24,60
DA:25,60
DA:26,60
DA:28,60
DA:29,60
DA:30,60
DA:32,60
DA:33,36
DA:34,24
DA:36,24
DA:37,0
DA:39,24
DA:40,5
DA:41,19
DA:44,60
BRF:0
BRH:0
LF:18
LH:17
end_of_record
SF:/Users/apognu/code/personal/motiva/src/matching/matchers/mismatch.rs
FN:94,_RINvNtNtNtCsXyt6dnSXPr_6motiva8matching8matchers8mismatch16dob_day_disjointNtNtCsiTraAjBDcu4_5alloc6string6StringEB8_
FN:94,_RINvNtNtNtCsXyt6dnSXPr_6motiva8matching8matchers8mismatch16dob_day_disjointReEB8_
FN:84,_RINvNtNtNtCsXyt6dnSXPr_6motiva8matching8matchers8mismatch17dob_year_disjointNtNtCsiTraAjBDcu4_5alloc6string6StringEB8_
FN:84,_RINvNtNtNtCsXyt6dnSXPr_6motiva8matching8matchers8mismatch17dob_year_disjointReEB8_
FN:97,_RNCINvNtNtNtCsXyt6dnSXPr_6motiva8matching8matchers8mismatch16dob_day_disjointNtNtCsiTraAjBDcu4_5alloc6string6StringE0Ba_
FN:103,_RNCINvNtNtNtCsXyt6dnSXPr_6motiva8matching8matchers8mismatch16dob_day_disjointNtNtCsiTraAjBDcu4_5alloc6string6StringEs0_0Ba_
FN:104,_RNCINvNtNtNtCsXyt6dnSXPr_6motiva8matching8matchers8mismatch16dob_day_disjointNtNtCsiTraAjBDcu4_5alloc6string6StringEs1_0Ba_
FN:119,_RNCINvNtNtNtCsXyt6dnSXPr_6motiva8matching8matchers8mismatch16dob_day_disjointNtNtCsiTraAjBDcu4_5alloc6string6StringEs2_0Ba_
FN:98,_RNCINvNtNtNtCsXyt6dnSXPr_6motiva8matching8matchers8mismatch16dob_day_disjointNtNtCsiTraAjBDcu4_5alloc6string6StringEs_0Ba_
FN:97,_RNCINvNtNtNtCsXyt6dnSXPr_6motiva8matching8matchers8mismatch16dob_day_disjointReE0Ba_
FN:103,_RNCINvNtNtNtCsXyt6dnSXPr_6motiva8matching8matchers8mismatch16dob_day_disjointReEs0_0Ba_
FN:104,_RNCINvNtNtNtCsXyt6dnSXPr_6motiva8matching8matchers8mismatch16dob_day_disjointReEs1_0Ba_
FN:119,_RNCINvNtNtNtCsXyt6dnSXPr_6motiva8matching8matchers8mismatch16dob_day_disjointReEs2_0Ba_
FN:98,_RNCINvNtNtNtCsXyt6dnSXPr_6motiva8matching8matchers8mismatch16dob_day_disjointReEs_0Ba_
FN:85,_RNCINvNtNtNtCsXyt6dnSXPr_6motiva8matching8matchers8mismatch17dob_year_disjointNtNtCsiTraAjBDcu4_5alloc6string6StringE0Ba_
FN:86,_RNCINvNtNtNtCsXyt6dnSXPr_6motiva8matching8matchers8mismatch17dob_year_disjointNtNtCsiTraAjBDcu4_5alloc6string6StringEs_0Ba_
FN:85,_RNCINvNtNtNtCsXyt6dnSXPr_6motiva8matching8matchers8mismatch17dob_year_disjointReE0Ba_
FN:86,_RNCINvNtNtNtCsXyt6dnSXPr_6motiva8matching8matchers8mismatch17dob_year_disjointReEs_0Ba_
FN:144,_RNvNtNtNtNtCsXyt6dnSXPr_6motiva8matching8matchers8mismatch5testss_16dob_day_disjoint
FN:154,_RNvNtNtNtNtCsXyt6dnSXPr_6motiva8matching8matchers8mismatch5testss_16numbers_mismatch
FN:138,_RNvNtNtNtNtCsXyt6dnSXPr_6motiva8matching8matchers8mismatch5testss_17dob_year_disjoint
FN:30,_RNvMNtNtNtCsXyt6dnSXPr_6motiva8matching8matchers8mismatchNtB2_14SimpleMismatch3new
FN:66,_RNvXs0_NtNtNtCsXyt6dnSXPr_6motiva8matching8matchers8mismatchNtB5_15NumbersMismatchNtB9_7Feature13score_feature
FN:41,_RNvXs_NtNtNtCsXyt6dnSXPr_6motiva8matching8matchers8mismatchNtB4_14SimpleMismatchNtB8_7Feature13score_feature
FN:36,_RNvXs_NtNtNtCsXyt6dnSXPr_6motiva8matching8matchers8mismatchNtB4_14SimpleMismatchNtB8_7Feature4name
FNDA:38,_RINvNtNtNtCsXyt6dnSXPr_6motiva8matching8matchers8mismatch16dob_day_disjointNtNtCsiTraAjBDcu4_5alloc6string6StringEB8_
FNDA:5,_RINvNtNtNtCsXyt6dnSXPr_6motiva8matching8matchers8mismatch16dob_day_disjointReEB8_
FNDA:87,_RINvNtNtNtCsXyt6dnSXPr_6motiva8matching8matchers8mismatch17dob_year_disjointNtNtCsiTraAjBDcu4_5alloc6string6StringEB8_
FNDA:7,_RINvNtNtNtCsXyt6dnSXPr_6motiva8matching8matchers8mismatch17dob_year_disjointReEB8_
FNDA:38,_RNCINvNtNtNtCsXyt6dnSXPr_6motiva8matching8matchers8mismatch16dob_day_disjointNtNtCsiTraAjBDcu4_5alloc6string6StringE0Ba_
FNDA:38,_RNCINvNtNtNtCsXyt6dnSXPr_6motiva8matching8matchers8mismatch16dob_day_disjointNtNtCsiTraAjBDcu4_5alloc6string6StringEs0_0Ba_
FNDA:38,_RNCINvNtNtNtCsXyt6dnSXPr_6motiva8matching8matchers8mismatch16dob_day_disjointNtNtCsiTraAjBDcu4_5alloc6string6StringEs1_0Ba_
FNDA:4,_RNCINvNtNtNtCsXyt6dnSXPr_6motiva8matching8matchers8mismatch16dob_day_disjointNtNtCsiTraAjBDcu4_5alloc6string6StringEs2_0Ba_
FNDA:38,_RNCINvNtNtNtCsXyt6dnSXPr_6motiva8matching8matchers8mismatch16dob_day_disjointNtNtCsiTraAjBDcu4_5alloc6string6StringEs_0Ba_
FNDA:6,_RNCINvNtNtNtCsXyt6dnSXPr_6motiva8matching8matchers8mismatch16dob_day_disjointReE0Ba_
FNDA:6,_RNCINvNtNtNtCsXyt6dnSXPr_6motiva8matching8matchers8mismatch16dob_day_disjointReEs0_0Ba_
FNDA:6,_RNCINvNtNtNtCsXyt6dnSXPr_6motiva8matching8matchers8mismatch16dob_day_disjointReEs1_0Ba_
FNDA:4,_RNCINvNtNtNtCsXyt6dnSXPr_6motiva8matching8matchers8mismatch16dob_day_disjointReEs2_0Ba_
FNDA:6,_RNCINvNtNtNtCsXyt6dnSXPr_6motiva8matching8matchers8mismatch16dob_day_disjointReEs_0Ba_
FNDA:87,_RNCINvNtNtNtCsXyt6dnSXPr_6motiva8matching8matchers8mismatch17dob_year_disjointNtNtCsiTraAjBDcu4_5alloc6string6StringE0Ba_
FNDA:87,_RNCINvNtNtNtCsXyt6dnSXPr_6motiva8matching8matchers8mismatch17dob_year_disjointNtNtCsiTraAjBDcu4_5alloc6string6StringEs_0Ba_
FNDA:8,_RNCINvNtNtNtCsXyt6dnSXPr_6motiva8matching8matchers8mismatch17dob_year_disjointReE0Ba_
FNDA:8,_RNCINvNtNtNtCsXyt6dnSXPr_6motiva8matching8matchers8mismatch17dob_year_disjointReEs_0Ba_
FNDA:1,_RNvNtNtNtNtCsXyt6dnSXPr_6motiva8matching8matchers8mismatch5testss_16dob_day_disjoint
FNDA:1,_RNvNtNtNtNtCsXyt6dnSXPr_6motiva8matching8matchers8mismatch5testss_16numbers_mismatch
FNDA:1,_RNvNtNtNtNtCsXyt6dnSXPr_6motiva8matching8matchers8mismatch5testss_17dob_year_disjoint
FNDA:438,_RNvMNtNtNtCsXyt6dnSXPr_6motiva8matching8matchers8mismatchNtB2_14SimpleMismatch3new
FNDA:29,_RNvXs0_NtNtNtCsXyt6dnSXPr_6motiva8matching8matchers8mismatchNtB5_15NumbersMismatchNtB9_7Feature13score_feature
FNDA:390,_RNvXs_NtNtNtCsXyt6dnSXPr_6motiva8matching8matchers8mismatchNtB4_14SimpleMismatchNtB8_7Feature13score_feature
FNDA:390,_RNvXs_NtNtNtCsXyt6dnSXPr_6motiva8matching8matchers8mismatchNtB4_14SimpleMismatchNtB8_7Feature4name
FNF:16
FNH:16
DA:30,438
DA:31,438
DA:32,438
DA:36,390
DA:37,390
DA:38,390
DA:41,390
DA:42,390
DA:44,390
DA:45,264
DA:46,126
DA:48,126
DA:50,126
DA:51,9
DA:52,117
DA:54,117
DA:55,87
DA:57,30
DA:58,22
DA:59,8
DA:62,390
DA:66,29
DA:67,29
DA:68,5
DA:69,5
DA:70,5
DA:71,5
DA:72,24
DA:73,24
DA:74,24
DA:75,24
DA:78,29
DA:79,29
DA:81,29
DA:82,29
DA:84,94
DA:85,95
DA:86,95
DA:88,94
DA:89,60
DA:90,34
DA:92,94
DA:94,43
DA:95,43
DA:96,43
DA:97,44
DA:98,44
DA:99,43
DA:101,43
DA:102,43
DA:103,44
DA:104,44
DA:105,43
DA:107,43
DA:108,0
DA:109,43
DA:111,43
DA:112,24
DA:113,19
DA:115,19
DA:116,12
DA:117,7
DA:119,8
DA:121,7
DA:122,3
DA:123,4
DA:125,4
DA:126,43
DA:138,1
DA:139,1
DA:140,1
DA:141,1
DA:144,1
DA:145,1
DA:147,1
DA:148,1
DA:149,1
DA:150,1
DA:151,1
DA:154,1
DA:155,1
DA:156,1
DA:158,1
DA:159,1
BRF:0
BRH:0
LF:91
LH:90
end_of_record
SF:/Users/apognu/code/personal/motiva/src/matching/matchers/name_fingerprint_levenshtein.rs
FN:20,_RNvNtNtNtCsXyt6dnSXPr_6motiva8matching8matchers28name_fingerprint_levenshtein16fingerprint_name
FN:28,_RNvNtNtNtCsXyt6dnSXPr_6motiva8matching8matchers28name_fingerprint_levenshtein28name_fingerprint_levenshtein
FN:16,_RNvXNtNtNtCsXyt6dnSXPr_6motiva8matching8matchers28name_fingerprint_levenshteinNtB2_26NameFingerprintLevenshteinNtB6_7Feature13score_feature
FN:106,_RNCNvNtNtNtNtCsXyt6dnSXPr_6motiva8matching8matchers28name_fingerprint_levenshtein5testss_28name_fingerprint_levenshtein0Bb_
FN:70,_RNCNCNCNvNtNtNtCsXyt6dnSXPr_6motiva8matching8matchers28name_fingerprint_levenshtein28name_fingerprint_levenshteins0_0s2_00Bd_
FN:71,_RNCNCNCNvNtNtNtCsXyt6dnSXPr_6motiva8matching8matchers28name_fingerprint_levenshtein28name_fingerprint_levenshteins0_0s3_00Bd_
FN:45,_RNCNCNvNtNtNtCsXyt6dnSXPr_6motiva8matching8matchers28name_fingerprint_levenshtein28name_fingerprint_levenshteins0_00Bb_
FN:59,_RNCNCNvNtNtNtCsXyt6dnSXPr_6motiva8matching8matchers28name_fingerprint_levenshtein28name_fingerprint_levenshteins0_0s0_0Bb_
FN:61,_RNCNCNvNtNtNtCsXyt6dnSXPr_6motiva8matching8matchers28name_fingerprint_levenshtein28name_fingerprint_levenshteins0_0s1_0Bb_
FN:70,_RNCNCNvNtNtNtCsXyt6dnSXPr_6motiva8matching8matchers28name_fingerprint_levenshtein28name_fingerprint_levenshteins0_0s2_0Bb_
FN:71,_RNCNCNvNtNtNtCsXyt6dnSXPr_6motiva8matching8matchers28name_fingerprint_levenshtein28name_fingerprint_levenshteins0_0s3_0Bb_
FN:81,_RNCNCNvNtNtNtCsXyt6dnSXPr_6motiva8matching8matchers28name_fingerprint_levenshtein28name_fingerprint_levenshteins0_0s4_0Bb_
FN:46,_RNCNCNvNtNtNtCsXyt6dnSXPr_6motiva8matching8matchers28name_fingerprint_levenshtein28name_fingerprint_levenshteins0_0s_0Bb_
FN:36,_RNCNvNtNtNtCsXyt6dnSXPr_6motiva8matching8matchers28name_fingerprint_levenshtein28name_fingerprint_levenshtein0B9_
FN:41,_RNCNvNtNtNtCsXyt6dnSXPr_6motiva8matching8matchers28name_fingerprint_levenshtein28name_fingerprint_levenshteins0_0B9_
FN:37,_RNCNvNtNtNtCsXyt6dnSXPr_6motiva8matching8matchers28name_fingerprint_levenshtein28name_fingerprint_levenshteins_0B9_
FN:97,_RNvNtNtNtNtCsXyt6dnSXPr_6motiva8matching8matchers28name_fingerprint_levenshtein5testss_16fingerprint_name
FNDA:13,_RNvNtNtNtCsXyt6dnSXPr_6motiva8matching8matchers28name_fingerprint_levenshtein16fingerprint_name
FNDA:31,_RNvNtNtNtCsXyt6dnSXPr_6motiva8matching8matchers28name_fingerprint_levenshtein28name_fingerprint_levenshtein
FNDA:30,_RNvXNtNtNtCsXyt6dnSXPr_6motiva8matching8matchers28name_fingerprint_levenshteinNtB2_26NameFingerprintLevenshteinNtB6_7Feature13score_feature
FNDA:1,_RNCNvNtNtNtNtCsXyt6dnSXPr_6motiva8matching8matchers28name_fingerprint_levenshtein5testss_28name_fingerprint_levenshtein0Bb_
FNDA:16,_RNCNCNCNvNtNtNtCsXyt6dnSXPr_6motiva8matching8matchers28name_fingerprint_levenshtein28name_fingerprint_levenshteins0_0s2_00Bd_
FNDA:16,_RNCNCNCNvNtNtNtCsXyt6dnSXPr_6motiva8matching8matchers28name_fingerprint_levenshtein28name_fingerprint_levenshteins0_0s3_00Bd_
FNDA:47,_RNCNCNvNtNtNtCsXyt6dnSXPr_6motiva8matching8matchers28name_fingerprint_levenshtein28name_fingerprint_levenshteins0_00Bb_
FNDA:12,_RNCNCNvNtNtNtCsXyt6dnSXPr_6motiva8matching8matchers28name_fingerprint_levenshtein28name_fingerprint_levenshteins0_0s0_0Bb_
FNDA:10,_RNCNCNvNtNtNtCsXyt6dnSXPr_6motiva8matching8matchers28name_fingerprint_levenshtein28name_fingerprint_levenshteins0_0s1_0Bb_
FNDA:18,_RNCNCNvNtNtNtCsXyt6dnSXPr_6motiva8matching8matchers28name_fingerprint_levenshtein28name_fingerprint_levenshteins0_0s2_0Bb_
FNDA:18,_RNCNCNvNtNtNtCsXyt6dnSXPr_6motiva8matching8matchers28name_fingerprint_levenshtein28name_fingerprint_levenshteins0_0s3_0Bb_
FNDA:8,_RNCNCNvNtNtNtCsXyt6dnSXPr_6motiva8matching8matchers28name_fingerprint_levenshtein28name_fingerprint_levenshteins0_0s4_0Bb_
FNDA:49,_RNCNCNvNtNtNtCsXyt6dnSXPr_6motiva8matching8matchers28name_fingerprint_levenshtein28name_fingerprint_levenshteins0_0s_0Bb_
FNDA:8,_RNCNvNtNtNtCsXyt6dnSXPr_6motiva8matching8matchers28name_fingerprint_levenshtein28name_fingerprint_levenshtein0B9_
FNDA:6,_RNCNvNtNtNtCsXyt6dnSXPr_6motiva8matching8matchers28name_fingerprint_levenshtein28name_fingerprint_levenshteins0_0B9_
FNDA:6,_RNCNvNtNtNtCsXyt6dnSXPr_6motiva8matching8matchers28name_fingerprint_levenshtein28name_fingerprint_levenshteins_0B9_
FNDA:1,_RNvNtNtNtNtCsXyt6dnSXPr_6motiva8matching8matchers28name_fingerprint_levenshtein5testss_16fingerprint_name
FNF:17
FNH:17
DA:16,30
DA:17,30
DA:18,30
DA:20,13
DA:21,13
DA:22,13
DA:23,13
DA:25,13
DA:26,13
DA:28,31
DA:29,31
DA:30,19
DA:31,12
DA:33,12
DA:34,12
DA:36,12
DA:37,12
DA:39,12
DA:40,12
DA:41,12
DA:42,6
DA:44,6
DA:45,47
DA:46,49
DA:48,6
DA:49,6
DA:50,6
DA:52,6
DA:53,6
DA:55,6
DA:56,0
DA:57,6
DA:59,12
DA:61,10
DA:63,6
DA:64,6
DA:66,6
DA:67,6
DA:69,18
DA:70,18
DA:71,18
DA:73,12
DA:74,8
DA:75,8
DA:76,8
DA:77,8
DA:78,8
DA:81,8
DA:82,0
DA:83,6
DA:85,6
DA:86,6
DA:87,12
DA:88,31
DA:97,1
DA:98,1
DA:99,1
DA:102,1
DA:106,1
DA:107,1
DA:109,1
DA:110,1
DA:112,1
DA:114,1
BRF:0
BRH:0
LF:76
LH:74
end_of_record
SF:/Users/apognu/code/personal/motiva/src/matching/matchers/name_literal_match.rs
FN:34,_RNvNtNtNtNtCsXyt6dnSXPr_6motiva8matching8matchers18name_literal_match5testss_18name_literal_match
FN:18,_RNvXNtNtNtCsXyt6dnSXPr_6motiva8matching8matchers18name_literal_matchNtB2_16NameLiteralMatchNtB6_7Feature13score_feature
FNDA:1,_RNvNtNtNtNtCsXyt6dnSXPr_6motiva8matching8matchers18name_literal_match5testss_18name_literal_match
FNDA:32,_RNvXNtNtNtCsXyt6dnSXPr_6motiva8matching8matchers18name_literal_matchNtB2_16NameLiteralMatchNtB6_7Feature13score_feature
FNF:2
FNH:2
DA:18,32
DA:19,32
DA:20,32
DA:22,32
DA:23,32
DA:34,1
DA:35,1
DA:36,1
DA:38,1
DA:40,1
DA:41,1
DA:43,1
DA:44,1
BRF:0
BRH:0
LF:13
LH:13
end_of_record
SF:/Users/apognu/code/personal/motiva/src/matching/matchers/orgid_mismatch.rs
FN:71,_RNvNtNtNtNtCsXyt6dnSXPr_6motiva8matching8matchers14orgid_mismatch5testss_14orgid_disjoint
FN:90,_RNCNvNtNtNtNtCsXyt6dnSXPr_6motiva8matching8matchers14orgid_mismatch5testss_20against_nomenklatura0Bb_
FN:19,_RNvXNtNtNtCsXyt6dnSXPr_6motiva8matching8matchers14orgid_mismatchNtB2_13OrgIdMismatchNtB6_7Feature13score_feature
FN:51,_RNCNvXNtNtNtCsXyt6dnSXPr_6motiva8matching8matchers14orgid_mismatchNtB4_13OrgIdMismatchNtB8_7Feature13score_feature0Ba_
FNDA:1,_RNvNtNtNtNtCsXyt6dnSXPr_6motiva8matching8matchers14orgid_mismatch5testss_14orgid_disjoint
FNDA:1,_RNCNvNtNtNtNtCsXyt6dnSXPr_6motiva8matching8matchers14orgid_mismatch5testss_20against_nomenklatura0Bb_
FNDA:79,_RNvXNtNtNtCsXyt6dnSXPr_6motiva8matching8matchers14orgid_mismatchNtB2_13OrgIdMismatchNtB6_7Feature13score_feature
FNDA:4,_RNCNvXNtNtNtCsXyt6dnSXPr_6motiva8matching8matchers14orgid_mismatchNtB4_13OrgIdMismatchNtB8_7Feature13score_feature0Ba_
FNF:4
FNH:4
DA:19,79
DA:20,79
DA:21,70
DA:22,9
DA:24,9
DA:26,9
DA:27,0
DA:28,9
DA:30,9
DA:32,9
DA:33,0
DA:34,9
DA:36,9
DA:37,9
DA:39,9
DA:40,0
DA:41,9
DA:43,9
DA:44,5
DA:45,4
DA:48,4
DA:49,4
DA:50,4
DA:51,4
DA:52,4
DA:53,4
DA:55,4
DA:56,4
DA:57,4
DA:58,4
DA:59,79
DA:71,1
DA:72,1
DA:73,1
DA:75,1
DA:77,1
DA:78,1
DA:80,1
DA:82,1
DA:83,1
DA:85,1
DA:86,1
DA:90,1
DA:91,1
DA:93,1
DA:94,1
DA:96,1
DA:98,1
BRF:0
BRH:0
LF:49
LH:46
end_of_record
SF:/Users/apognu/code/personal/motiva/src/matching/matchers/phonetic.rs
FN:38,_RNCNCNvXNtNtNtCsXyt6dnSXPr_6motiva8matching8matchers8phoneticNtB6_23PersonNamePhoneticMatchNtBa_7Feature13score_feature00Bc_
FN:29,_RNCNvXNtNtNtCsXyt6dnSXPr_6motiva8matching8matchers8phoneticNtB4_23PersonNamePhoneticMatchNtB8_7Feature13score_feature0Ba_
FN:15,_RNvXNtNtNtCsXyt6dnSXPr_6motiva8matching8matchers8phoneticNtB2_23PersonNamePhoneticMatchNtB6_7Feature13score_feature
FNDA:16,_RNCNCNvXNtNtNtCsXyt6dnSXPr_6motiva8matching8matchers8phoneticNtB6_23PersonNamePhoneticMatchNtBa_7Feature13score_feature00Bc_
FNDA:11,_RNCNvXNtNtNtCsXyt6dnSXPr_6motiva8matching8matchers8phoneticNtB4_23PersonNamePhoneticMatchNtB8_7Feature13score_feature0Ba_
FNDA:31,_RNvXNtNtNtCsXyt6dnSXPr_6motiva8matching8matchers8phoneticNtB2_23PersonNamePhoneticMatchNtB6_7Feature13score_feature
FNF:3
FNH:3
DA:15,31
DA:16,31
DA:17,23
DA:18,8
DA:20,8
DA:21,8
DA:23,8
DA:24,8
DA:25,8
DA:27,8
DA:29,11
DA:30,11
DA:31,11
DA:33,38
DA:34,43
DA:35,43
DA:36,14
DA:38,16
DA:39,14
DA:40,14
DA:42,14
DA:43,29
DA:47,11
DA:48,11
DA:50,8
DA:51,31
BRF:0
BRH:0
LF:28
LH:28
end_of_record
SF:/Users/apognu/code/personal/motiva/src/matching/matchers/soundex.rs
FN:15,_RNvXNtNtNtCsXyt6dnSXPr_6motiva8matching8matchers7soundexNtB2_16SoundexNamePartsNtB6_7Feature13score_feature
FN:21,_RNCNvXNtNtNtCsXyt6dnSXPr_6motiva8matching8matchers7soundexNtB4_16SoundexNamePartsNtB8_7Feature13score_feature0Ba_
FN:45,_RNCNvNtNtNtNtCsXyt6dnSXPr_6motiva8matching8matchers7soundex5testss_20against_nomenklatura0Bb_
FNDA:78,_RNvXNtNtNtCsXyt6dnSXPr_6motiva8matching8matchers7soundexNtB2_16SoundexNamePartsNtB6_7Feature13score_feature
FNDA:203,_RNCNvXNtNtNtCsXyt6dnSXPr_6motiva8matching8matchers7soundexNtB4_16SoundexNamePartsNtB8_7Feature13score_feature0Ba_
FNDA:1,_RNCNvNtNtNtNtCsXyt6dnSXPr_6motiva8matching8matchers7soundex5testss_20against_nomenklatura0Bb_
FNF:3
FNH:3
DA:15,78
DA:16,78
DA:17,78
DA:19,78
DA:20,78
DA:21,203
DA:22,78
DA:24,213
DA:25,135
DA:27,135
DA:30,78
DA:31,78
DA:45,1
DA:46,1
DA:48,1
DA:49,1
DA:51,1
DA:53,1
BRF:0
BRH:0
LF:19
LH:19
end_of_record
SF:/Users/apognu/code/personal/motiva/src/matching/mod.rs
FN:25,_RNvNtCsXyt6dnSXPr_6motiva8matching12run_features
FN:26,_RNCNvNtCsXyt6dnSXPr_6motiva8matching12run_features0B5_
FNDA:107,_RNvNtCsXyt6dnSXPr_6motiva8matching12run_features
FNDA:724,_RNCNvNtCsXyt6dnSXPr_6motiva8matching12run_features0B5_
FNF:2
FNH:2
DA:25,107
DA:26,724
DA:30,724
DA:31,77
DA:32,647
DA:34,647
DA:36,647
DA:38,647
DA:40,647
DA:41,724
DA:42,107
BRF:0
BRH:0
LF:12
LH:12
end_of_record
SF:/Users/apognu/code/personal/motiva/src/matching/name_based.rs
FN:16,_RNvXNtNtCsXyt6dnSXPr_6motiva8matching10name_basedNtB2_9NameBasedNtB4_17MatchingAlgorithm4name
FN:21,_RNvXNtNtCsXyt6dnSXPr_6motiva8matching10name_basedNtB2_9NameBasedNtB4_17MatchingAlgorithm5score
FN:53,_RNCNvNtNtNtCsXyt6dnSXPr_6motiva8matching10name_based5testss_20against_nomenklatura0B9_
FN:42,_RNvNtNtNtCsXyt6dnSXPr_6motiva8matching10name_based5testss_10name_based
FNDA:0,_RNvXNtNtCsXyt6dnSXPr_6motiva8matching10name_basedNtB2_9NameBasedNtB4_17MatchingAlgorithm4name
FNDA:5,_RNvXNtNtCsXyt6dnSXPr_6motiva8matching10name_basedNtB2_9NameBasedNtB4_17MatchingAlgorithm5score
FNDA:1,_RNCNvNtNtNtCsXyt6dnSXPr_6motiva8matching10name_based5testss_20against_nomenklatura0B9_
FNDA:1,_RNvNtNtNtCsXyt6dnSXPr_6motiva8matching10name_based5testss_10name_based
FNF:4
FNH:3
DA:16,0
DA:17,0
DA:18,0
DA:21,5
DA:22,5
DA:23,5
DA:24,5
DA:26,5
DA:27,5
DA:42,1
DA:43,1
DA:44,1
DA:46,1
DA:48,1
DA:49,1
DA:53,1
DA:54,1
DA:56,1
DA:58,1
DA:59,1
DA:60,1
DA:61,1
DA:62,1
DA:63,1
DA:64,1
DA:65,1
DA:66,1
DA:67,1
DA:68,1
DA:69,1
DA:70,1
DA:71,1
DA:72,1
DA:73,1
DA:74,1
DA:77,1
DA:79,4
DA:80,4
DA:82,4
BRF:0
BRH:0
LF:39
LH:36
end_of_record
SF:/Users/apognu/code/personal/motiva/src/matching/name_qualified.rs
FN:21,_RNvXNtNtCsXyt6dnSXPr_6motiva8matching14name_qualifiedNtB2_13NameQualifiedNtB4_17MatchingAlgorithm4name
FN:26,_RNvXNtNtCsXyt6dnSXPr_6motiva8matching14name_qualifiedNtB2_13NameQualifiedNtB4_17MatchingAlgorithm5score
FN:30,_RNCNvXNtNtCsXyt6dnSXPr_6motiva8matching14name_qualifiedNtB4_13NameQualifiedNtB6_17MatchingAlgorithm5score0B8_
FN:32,_RNCNvXNtNtCsXyt6dnSXPr_6motiva8matching14name_qualifiedNtB4_13NameQualifiedNtB6_17MatchingAlgorithm5scores0_0B8_
FN:33,_RNCNvXNtNtCsXyt6dnSXPr_6motiva8matching14name_qualifiedNtB4_13NameQualifiedNtB6_17MatchingAlgorithm5scores1_0B8_
FN:31,_RNCNvXNtNtCsXyt6dnSXPr_6motiva8matching14name_qualifiedNtB4_13NameQualifiedNtB6_17MatchingAlgorithm5scores_0B8_
FN:57,_RNCNvNtNtNtCsXyt6dnSXPr_6motiva8matching14name_qualified5testss_27person_against_nomenklatura0B9_
FN:140,_RNCNvNtNtNtCsXyt6dnSXPr_6motiva8matching14name_qualified5testss_28company_against_nomenklatura0B9_
FNDA:72,_RNvXNtNtCsXyt6dnSXPr_6motiva8matching14name_qualifiedNtB2_13NameQualifiedNtB4_17MatchingAlgorithm4name
FNDA:72,_RNvXNtNtCsXyt6dnSXPr_6motiva8matching14name_qualifiedNtB2_13NameQualifiedNtB4_17MatchingAlgorithm5score
FNDA:87,_RNCNvXNtNtCsXyt6dnSXPr_6motiva8matching14name_qualifiedNtB4_13NameQualifiedNtB6_17MatchingAlgorithm5score0B8_
FNDA:97,_RNCNvXNtNtCsXyt6dnSXPr_6motiva8matching14name_qualifiedNtB4_13NameQualifiedNtB6_17MatchingAlgorithm5scores0_0B8_
FNDA:58,_RNCNvXNtNtCsXyt6dnSXPr_6motiva8matching14name_qualifiedNtB4_13NameQualifiedNtB6_17MatchingAlgorithm5scores1_0B8_
FNDA:119,_RNCNvXNtNtCsXyt6dnSXPr_6motiva8matching14name_qualifiedNtB4_13NameQualifiedNtB6_17MatchingAlgorithm5scores_0B8_
FNDA:1,_RNCNvNtNtNtCsXyt6dnSXPr_6motiva8matching14name_qualified5testss_27person_against_nomenklatura0B9_
FNDA:1,_RNCNvNtNtNtCsXyt6dnSXPr_6motiva8matching14name_qualified5testss_28company_against_nomenklatura0B9_
FNF:8
FNH:8
DA:21,72
DA:22,72
DA:23,72
DA:26,72
DA:27,72
DA:28,72
DA:29,72
DA:30,87
DA:31,119
DA:32,97
DA:33,72
DA:34,72
DA:37,72
DA:38,72
DA:40,72
DA:41,72
DA:57,1
DA:58,1
DA:60,1
DA:61,1
DA:62,1
DA:63,1
DA:64,1
DA:65,1
DA:66,1
DA:67,1
DA:68,1
DA:69,1
DA:70,1
DA:71,1
DA:72,1
DA:73,1
DA:74,1
DA:75,1
DA:76,1
DA:77,1
DA:78,1
DA:79,1
DA:80,1
DA:81,1
DA:82,1
DA:83,1
DA:84,1
DA:85,1
DA:86,1
DA:87,1
DA:90,1
DA:91,1
DA:92,1
DA:93,1
DA:94,1
DA:95,1
DA:96,1
DA:97,1
DA:98,1
DA:99,1
DA:100,1
DA:101,1
DA:102,1
DA:103,1
DA:104,1
DA:105,1
DA:106,1
DA:107,1
DA:108,1
DA:109,1
DA:110,1
DA:111,1
DA:112,1
DA:113,1
DA:114,1
DA:115,1
DA:116,1
DA:117,1
DA:118,1
DA:119,1
DA:120,1
DA:123,24
DA:124,23
DA:126,69
DA:127,69
DA:129,69
DA:130,69
DA:131,0
DA:132,0
DA:140,1
DA:141,1
DA:143,1
DA:144,1
DA:145,1
DA:146,1
DA:149,1
DA:151,4
DA:152,3
DA:154,3
DA:155,3
DA:157,3
BRF:0
BRH:0
LF:101
LH:99
end_of_record
SF:/Users/apognu/code/personal/motiva/src/matching/replacers/addresses.rs
FN:8,_RNCNvNtNtNtCsXyt6dnSXPr_6motiva8matching9replacers9addresses13ADDRESS_FORMS0B9_
FNDA:1,_RNCNvNtNtNtCsXyt6dnSXPr_6motiva8matching9replacers9addresses13ADDRESS_FORMS0B9_
FNF:1
FNH:1
DA:8,1
DA:9,1
DA:10,1
DA:12,1
DA:13,1
DA:15,99
DA:16,98
DA:17,98
DA:19,391
DA:20,293
DA:21,293
DA:22,293
DA:25,1
DA:26,1
DA:27,1
DA:28,1
DA:29,1
BRF:0
BRH:0
LF:17
LH:17
end_of_record
SF:/Users/apognu/code/personal/motiva/src/matching/replacers/company_types.rs
FN:8,_RNCNvNtNtNtCsXyt6dnSXPr_6motiva8matching9replacers13company_types9ORG_TYPES0B9_
FNDA:1,_RNCNvNtNtNtCsXyt6dnSXPr_6motiva8matching9replacers13company_types9ORG_TYPES0B9_
FNF:1
FNH:1
DA:8,1
DA:9,1
DA:10,1
DA:12,1
DA:13,1
DA:15,408
DA:16,407
DA:17,364
DA:18,331
DA:19,331
DA:20,331
DA:22,1680
DA:23,1316
DA:24,1316
DA:25,1316
DA:26,43
DA:29,1
DA:30,1
DA:31,1
DA:32,1
DA:33,1
BRF:0
BRH:0
LF:21
LH:21
end_of_record
SF:/Users/apognu/code/personal/motiva/src/matching/replacers/mod.rs
FN:14,_RINvNtNtCsXyt6dnSXPr_6motiva8matching9replacers7replaceNtNtCsiTraAjBDcu4_5alloc6string6StringEB6_
FN:14,_RINvNtNtCsXyt6dnSXPr_6motiva8matching9replacers7replaceReEB6_
FN:22,_RNCINvNtNtCsXyt6dnSXPr_6motiva8matching9replacers7replaceNtNtCsiTraAjBDcu4_5alloc6string6StringE0B8_
FN:23,_RNCINvNtNtCsXyt6dnSXPr_6motiva8matching9replacers7replaceNtNtCsiTraAjBDcu4_5alloc6string6StringEs_0B8_
FN:22,_RNCINvNtNtCsXyt6dnSXPr_6motiva8matching9replacers7replaceReE0B8_
FN:23,_RNCINvNtNtCsXyt6dnSXPr_6motiva8matching9replacers7replaceReEs_0B8_
FN:10,_RNvMNtNtCsXyt6dnSXPr_6motiva8matching9replacersNtB2_12Dictionaries3get
FNDA:39,_RINvNtNtCsXyt6dnSXPr_6motiva8matching9replacers7replaceNtNtCsiTraAjBDcu4_5alloc6string6StringEB6_
FNDA:12,_RINvNtNtCsXyt6dnSXPr_6motiva8matching9replacers7replaceReEB6_
FNDA:15,_RNCINvNtNtCsXyt6dnSXPr_6motiva8matching9replacers7replaceNtNtCsiTraAjBDcu4_5alloc6string6StringE0B8_
FNDA:10,_RNCINvNtNtCsXyt6dnSXPr_6motiva8matching9replacers7replaceNtNtCsiTraAjBDcu4_5alloc6string6StringEs_0B8_
FNDA:46,_RNCINvNtNtCsXyt6dnSXPr_6motiva8matching9replacers7replaceReE0B8_
FNDA:52,_RNCINvNtNtCsXyt6dnSXPr_6motiva8matching9replacers7replaceReEs_0B8_
FNDA:0,_RNvMNtNtCsXyt6dnSXPr_6motiva8matching9replacersNtB2_12Dictionaries3get
FNF:4
FNH:3
DA:10,0
DA:14,51
DA:15,51
DA:16,51
DA:18,51
DA:19,51
DA:21,68
DA:22,68
DA:23,68
DA:25,68
DA:26,36
DA:27,36
DA:28,36
DA:29,36
DA:30,36
DA:33,51
DA:34,51
DA:35,51
BRF:0
BRH:0
LF:20
LH:19
end_of_record
SF:/Users/apognu/code/personal/motiva/src/matching/replacers/ordinals.rs
FN:8,_RNCNvNtNtNtCsXyt6dnSXPr_6motiva8matching9replacers8ordinals8ORDINALS0B9_
FNDA:1,_RNCNvNtNtNtCsXyt6dnSXPr_6motiva8matching9replacers8ordinals8ORDINALS0B9_
FNF:1
FNH:1
DA:8,1
DA:9,1
DA:10,1
DA:12,1
DA:13,1
DA:15,102
DA:16,101
DA:17,101
DA:19,4461
DA:20,4360
DA:21,4360
DA:22,4360
DA:25,1
DA:26,1
DA:27,1
DA:28,1
DA:29,1
BRF:0
BRH:0
LF:17
LH:17
end_of_record
SF:/Users/apognu/code/personal/motiva/src/matching/replacers/stopwords.rs
FN:8,_RNCNvNtNtNtCsXyt6dnSXPr_6motiva8matching9replacers9stopwords9STOPWORDS0B9_
FNDA:1,_RNCNvNtNtNtCsXyt6dnSXPr_6motiva8matching9replacers9stopwords9STOPWORDS0B9_
FNF:1
FNH:1
DA:8,1
DA:9,1
DA:10,1
DA:12,1
DA:13,1
DA:15,157
DA:16,156
DA:17,156
DA:18,156
DA:20,1
DA:21,1
DA:22,1
DA:23,1
DA:24,1
BRF:0
BRH:0
LF:14
LH:14
end_of_record
SF:/Users/apognu/code/personal/motiva/src/matching/replacers/symbols.rs
FN:8,_RNCNvNtNtNtCsXyt6dnSXPr_6motiva8matching9replacers7symbols11ORG_SYMBOLS0B9_
FNDA:1,_RNCNvNtNtNtCsXyt6dnSXPr_6motiva8matching9replacers7symbols11ORG_SYMBOLS0B9_
FNF:1
FNH:1
DA:8,1
DA:9,1
DA:10,1
DA:12,1
DA:13,1
DA:15,167
DA:16,2508
DA:17,2342
DA:18,2342
DA:19,2342
DA:22,1
DA:23,1
DA:24,1
DA:25,1
DA:26,1
BRF:0
BRH:0
LF:15
LH:15
end_of_record
SF:/Users/apognu/code/personal/motiva/src/matching/validators.rs
FN:78,_RNvNtNtCsXyt6dnSXPr_6motiva8matching10validators12validate_bic
FN:53,_RNvNtNtCsXyt6dnSXPr_6motiva8matching10validators12validate_imo
FN:17,_RNvNtNtCsXyt6dnSXPr_6motiva8matching10validators12validate_inn
FN:100,_RNvNtNtCsXyt6dnSXPr_6motiva8matching10validators13validate_isin
FN:49,_RNvNtNtCsXyt6dnSXPr_6motiva8matching10validators13validate_mmsi
FN:1,_RNvNtNtCsXyt6dnSXPr_6motiva8matching10validators13validate_ogrn
FN:39,_RNvNtNtCsXyt6dnSXPr_6motiva8matching10validators15inn_check_digit
FN:45,_RNvNtNtCsXyt6dnSXPr_6motiva8matching10validators17validate_imo_mmsi
FN:18,_RNCNCNvNtNtCsXyt6dnSXPr_6motiva8matching10validators12validate_inn00B9_
FN:85,_RNCNvNtNtCsXyt6dnSXPr_6motiva8matching10validators12validate_bic0B7_
FN:91,_RNCNvNtNtCsXyt6dnSXPr_6motiva8matching10validators12validate_bics0_0B7_
FN:94,_RNCNvNtNtCsXyt6dnSXPr_6motiva8matching10validators12validate_bics1_0B7_
FN:88,_RNCNvNtNtCsXyt6dnSXPr_6motiva8matching10validators12validate_bics_0B7_
FN:60,_RNCNvNtNtCsXyt6dnSXPr_6motiva8matching10validators12validate_imo0B7_
FN:18,_RNCNvNtNtCsXyt6dnSXPr_6motiva8matching10validators12validate_inn0B7_
FN:107,_RNCNvNtNtCsXyt6dnSXPr_6motiva8matching10validators13validate_isin0B7_
FN:110,_RNCNvNtNtCsXyt6dnSXPr_6motiva8matching10validators13validate_isins_0B7_
FN:50,_RNCNvNtNtCsXyt6dnSXPr_6motiva8matching10validators13validate_mmsi0B7_
FN:2,_RNCNvNtNtCsXyt6dnSXPr_6motiva8matching10validators13validate_ogrn0B7_
FN:40,_RNCNvNtNtCsXyt6dnSXPr_6motiva8matching10validators15inn_check_digit0B7_
FN:149,_RNvNtNtNtCsXyt6dnSXPr_6motiva8matching10validators5testss_12validate_bic
FN:133,_RNvNtNtNtCsXyt6dnSXPr_6motiva8matching10validators5testss_12validate_inn
FN:158,_RNvNtNtNtCsXyt6dnSXPr_6motiva8matching10validators5testss_13validate_isin
FN:125,_RNvNtNtNtCsXyt6dnSXPr_6motiva8matching10validators5testss_13validate_ogrn
FN:141,_RNvNtNtNtCsXyt6dnSXPr_6motiva8matching10validators5testss_17validate_mmo_mmsi
FNDA:5,_RNvNtNtCsXyt6dnSXPr_6motiva8matching10validators12validate_bic
FNDA:11,_RNvNtNtCsXyt6dnSXPr_6motiva8matching10validators12validate_imo
FNDA:10,_RNvNtNtCsXyt6dnSXPr_6motiva8matching10validators12validate_inn
FNDA:5,_RNvNtNtCsXyt6dnSXPr_6motiva8matching10validators13validate_isin
FNDA:11,_RNvNtNtCsXyt6dnSXPr_6motiva8matching10validators13validate_mmsi
FNDA:8,_RNvNtNtCsXyt6dnSXPr_6motiva8matching10validators13validate_ogrn
FNDA:4,_RNvNtNtCsXyt6dnSXPr_6motiva8matching10validators15inn_check_digit
FNDA:11,_RNvNtNtCsXyt6dnSXPr_6motiva8matching10validators17validate_imo_mmsi
FNDA:68,_RNCNCNvNtNtCsXyt6dnSXPr_6motiva8matching10validators12validate_inn00B9_
FNDA:16,_RNCNvNtNtCsXyt6dnSXPr_6motiva8matching10validators12validate_bic0B7_
FNDA:5,_RNCNvNtNtCsXyt6dnSXPr_6motiva8matching10validators12validate_bics0_0B7_
FNDA:3,_RNCNvNtNtCsXyt6dnSXPr_6motiva8matching10validators12validate_bics1_0B7_
FNDA:7,_RNCNvNtNtCsXyt6dnSXPr_6motiva8matching10validators12validate_bics_0B7_
FNDA:35,_RNCNvNtNtCsXyt6dnSXPr_6motiva8matching10validators12validate_imo0B7_
FNDA:75,_RNCNvNtNtCsXyt6dnSXPr_6motiva8matching10validators12validate_inn0B7_
FNDA:8,_RNCNvNtNtCsXyt6dnSXPr_6motiva8matching10validators13validate_isin0B7_
FNDA:36,_RNCNvNtNtCsXyt6dnSXPr_6motiva8matching10validators13validate_isins_0B7_
FNDA:33,_RNCNvNtNtCsXyt6dnSXPr_6motiva8matching10validators13validate_mmsi0B7_
FNDA:53,_RNCNvNtNtCsXyt6dnSXPr_6motiva8matching10validators13validate_ogrn0B7_
FNDA:39,_RNCNvNtNtCsXyt6dnSXPr_6motiva8matching10validators15inn_check_digit0B7_
FNDA:1,_RNvNtNtNtCsXyt6dnSXPr_6motiva8matching10validators5testss_12validate_bic
FNDA:1,_RNvNtNtNtCsXyt6dnSXPr_6motiva8matching10validators5testss_12validate_inn
FNDA:1,_RNvNtNtNtCsXyt6dnSXPr_6motiva8matching10validators5testss_13validate_isin
FNDA:1,_RNvNtNtNtCsXyt6dnSXPr_6motiva8matching10validators5testss_13validate_ogrn
FNDA:1,_RNvNtNtNtCsXyt6dnSXPr_6motiva8matching10validators5testss_17validate_mmo_mmsi
FNF:25
FNH:25
DA:1,8
DA:2,53
DA:3,4
DA:4,4
DA:6,4
DA:7,4
DA:8,0
DA:11,4
DA:12,4
DA:14,4
DA:15,8
DA:17,10
DA:18,75
DA:19,3
DA:20,7
DA:23,3
DA:25,2
DA:26,2
DA:29,1
DA:30,1
DA:31,1
DA:32,1
DA:33,1
DA:35,0
DA:37,10
DA:39,4
DA:40,39
DA:42,4
DA:43,4
DA:45,11
DA:46,11
DA:47,11
DA:49,11
DA:50,33
DA:51,11
DA:53,11
DA:54,11
DA:55,6
DA:56,5
DA:58,5
DA:60,35
DA:61,0
DA:62,5
DA:64,5
DA:65,5
DA:67,30
DA:68,30
DA:69,30
DA:70,30
DA:72,5
DA:73,5
DA:75,5
DA:76,11
DA:78,5
DA:79,5
DA:80,1
DA:81,4
DA:83,4
DA:85,16
DA:86,0
DA:87,4
DA:88,7
DA:89,1
DA:90,3
DA:91,5
DA:92,1
DA:93,2
DA:94,3
DA:95,0
DA:96,2
DA:97,2
DA:98,5
DA:100,5
DA:101,5
DA:102,1
DA:103,4
DA:105,4
DA:107,8
DA:108,0
DA:109,4
DA:110,36
DA:111,0
DA:112,4
DA:113,4
DA:114,0
DA:115,4
DA:117,4
DA:119,4
DA:120,5
DA:125,1
DA:126,1
DA:127,1
DA:128,1
DA:129,1
DA:130,1
DA:133,1
DA:134,1
DA:135,1
DA:136,1
DA:137,1
DA:138,1
DA:141,1
DA:142,1
DA:143,1
DA:144,1
DA:145,1
DA:146,1
DA:149,1
DA:150,1
DA:151,1
DA:152,1
DA:153,1
DA:154,1
DA:155,1
DA:158,1
DA:159,1
DA:160,1
DA:161,1
DA:162,1
DA:163,1
DA:164,1
BRF:0
BRH:0
LF:133
LH:125
end_of_record
SF:/Users/apognu/code/personal/motiva/src/model.rs
FN:68,_RNCNCNCNvMNtCsXyt6dnSXPr_6motiva5modelNtB8_6Schema8property000Ba_
FN:56,_RNCNCNvMNtCsXyt6dnSXPr_6motiva5modelNtB6_6Schema10properties00B8_
FN:68,_RNCNCNvMNtCsXyt6dnSXPr_6motiva5modelNtB6_6Schema8property00B8_
FN:56,_RNCNvMNtCsXyt6dnSXPr_6motiva5modelNtB4_6Schema10properties0B6_
FN:68,_RNCNvMNtCsXyt6dnSXPr_6motiva5modelNtB4_6Schema8property0B6_
FN:49,_RNvMNtCsXyt6dnSXPr_6motiva5modelNtB2_6Schema10properties
FN:62,_RNvMNtCsXyt6dnSXPr_6motiva5modelNtB2_6Schema8property
FN:163,_RNvXs1_NtCsXyt6dnSXPr_6motiva5modelNtB5_6EntityINtNtCsaNl6UpbT7bw_4core7convert4FromNtNtB7_5index8EsEntityE4from
FN:29,_RNvMNtCsXyt6dnSXPr_6motiva5modelNtB2_6Schema4from
FN:37,_RNvMNtCsXyt6dnSXPr_6motiva5modelNtB2_6Schema4is_a
FN:33,_RNvMNtCsXyt6dnSXPr_6motiva5modelNtB2_6Schema6as_str
FN:85,_RNvMs_NtCsXyt6dnSXPr_6motiva5modelNtB4_12SearchEntity10precompute
FN:91,_RNvXs0_NtCsXyt6dnSXPr_6motiva5modelNtB5_12SearchEntityNtB5_13HasProperties17names_and_aliases
FN:105,_RNvXs0_NtCsXyt6dnSXPr_6motiva5modelNtB5_12SearchEntityNtB5_13HasProperties6gather
FN:98,_RNvXs0_NtCsXyt6dnSXPr_6motiva5modelNtB5_12SearchEntityNtB5_13HasProperties8property
FN:186,_RNvXs2_NtCsXyt6dnSXPr_6motiva5modelNtB5_6EntityNtB5_13HasProperties17names_and_aliases
FN:200,_RNvXs2_NtCsXyt6dnSXPr_6motiva5modelNtB5_6EntityNtB5_13HasProperties6gather
FN:193,_RNvXs2_NtCsXyt6dnSXPr_6motiva5modelNtB5_6EntityNtB5_13HasProperties8property
FN:216,_RNvNtNtCsXyt6dnSXPr_6motiva5model5testss_11entity_is_a
FN:150,_RINvNtCsXyt6dnSXPr_6motiva5model15features_to_mapINtNtCsjzo1iJoRdNp_10serde_json3ser18RawValueStrEmitterQINtNtNtCs4o22YPnZA0i_5bytes3buf6writer6WriterNtNtB1M_9bytes_mut8BytesMutENtBO_16CompactFormatterEEB4_
FN:150,_RINvNtCsXyt6dnSXPr_6motiva5model15features_to_mapQINtNtCsjzo1iJoRdNp_10serde_json3ser10SerializerQINtNtNtCs4o22YPnZA0i_5bytes3buf6writer6WriterNtNtB1F_9bytes_mut8BytesMutEEEB4_
FN:46,_RNCNvMNtCsXyt6dnSXPr_6motiva5modelNtB4_6Schema4is_a0B6_
FNDA:0,_RNCNCNCNvMNtCsXyt6dnSXPr_6motiva5modelNtB8_6Schema8property000Ba_
FNDA:0,_RNCNCNvMNtCsXyt6dnSXPr_6motiva5modelNtB6_6Schema10properties00B8_
FNDA:0,_RNCNCNvMNtCsXyt6dnSXPr_6motiva5modelNtB6_6Schema8property00B8_
FNDA:0,_RNCNvMNtCsXyt6dnSXPr_6motiva5modelNtB4_6Schema10properties0B6_
FNDA:0,_RNCNvMNtCsXyt6dnSXPr_6motiva5modelNtB4_6Schema8property0B6_
FNDA:0,_RNvMNtCsXyt6dnSXPr_6motiva5modelNtB2_6Schema10properties
FNDA:0,_RNvMNtCsXyt6dnSXPr_6motiva5modelNtB2_6Schema8property
FNDA:0,_RNvXs1_NtCsXyt6dnSXPr_6motiva5modelNtB5_6EntityINtNtCsaNl6UpbT7bw_4core7convert4FromNtNtB7_5index8EsEntityE4from
FNDA:86,_RNvMNtCsXyt6dnSXPr_6motiva5modelNtB2_6Schema4from
FNDA:332,_RNvMNtCsXyt6dnSXPr_6motiva5modelNtB2_6Schema4is_a
FNDA:151,_RNvMNtCsXyt6dnSXPr_6motiva5modelNtB2_6Schema6as_str
FNDA:52,_RNvMs_NtCsXyt6dnSXPr_6motiva5modelNtB4_12SearchEntity10precompute
FNDA:85,_RNvXs0_NtCsXyt6dnSXPr_6motiva5modelNtB5_12SearchEntityNtB5_13HasProperties17names_and_aliases
FNDA:70,_RNvXs0_NtCsXyt6dnSXPr_6motiva5modelNtB5_12SearchEntityNtB5_13HasProperties6gather
FNDA:1197,_RNvXs0_NtCsXyt6dnSXPr_6motiva5modelNtB5_12SearchEntityNtB5_13HasProperties8property
FNDA:298,_RNvXs2_NtCsXyt6dnSXPr_6motiva5modelNtB5_6EntityNtB5_13HasProperties17names_and_aliases
FNDA:76,_RNvXs2_NtCsXyt6dnSXPr_6motiva5modelNtB5_6EntityNtB5_13HasProperties6gather
FNDA:1550,_RNvXs2_NtCsXyt6dnSXPr_6motiva5modelNtB5_6EntityNtB5_13HasProperties8property
FNDA:1,_RNvNtNtCsXyt6dnSXPr_6motiva5model5testss_11entity_is_a
FNDA:0,_RINvNtCsXyt6dnSXPr_6motiva5model15features_to_mapINtNtCsjzo1iJoRdNp_10serde_json3ser18RawValueStrEmitterQINtNtNtCs4o22YPnZA0i_5bytes3buf6writer6WriterNtNtB1M_9bytes_mut8BytesMutENtBO_16CompactFormatterEEB4_
FNDA:1,_RINvNtCsXyt6dnSXPr_6motiva5model15features_to_mapQINtNtCsjzo1iJoRdNp_10serde_json3ser10SerializerQINtNtNtCs4o22YPnZA0i_5bytes3buf6writer6WriterNtNtB1F_9bytes_mut8BytesMutEEEB4_
FNDA:157,_RNCNvMNtCsXyt6dnSXPr_6motiva5modelNtB4_6Schema4is_a0B6_
FNF:21
FNH:13
DA:29,86
DA:30,86
DA:31,86
DA:33,151
DA:34,151
DA:35,151
DA:37,332
DA:38,332
DA:39,86
DA:40,246
DA:42,246
DA:43,0
DA:46,246
DA:47,332
DA:49,0
DA:50,0
DA:53,0
DA:54,0
DA:55,0
DA:56,0
DA:57,0
DA:58,0
DA:60,0
DA:62,0
DA:63,0
DA:65,0
DA:66,0
DA:67,0
DA:68,0
DA:69,0
DA:70,0
DA:85,52
DA:86,52
DA:87,52
DA:91,85
DA:92,85
DA:93,85
DA:95,85
DA:96,85
DA:98,1197
DA:99,1197
DA:100,321
DA:101,876
DA:103,1197
DA:105,70
DA:106,70
DA:108,431
DA:109,361
DA:110,361
DA:112,70
DA:113,70
DA:150,1
DA:151,1
DA:152,0
DA:153,1
DA:155,1
DA:156,5
DA:157,4
DA:159,1
DA:160,1
DA:163,0
DA:164,0
DA:166,0
DA:167,0
DA:168,0
DA:169,0
DA:170,0
DA:171,0
DA:172,0
DA:173,0
DA:174,0
DA:175,0
DA:176,0
DA:177,0
DA:178,0
DA:179,0
DA:180,0
DA:181,0
DA:182,0
DA:186,298
DA:187,298
DA:188,298
DA:190,298
DA:191,298
DA:193,1550
DA:194,1550
DA:195,650
DA:196,900
DA:198,1550
DA:200,76
DA:201,76
DA:203,689
DA:204,613
DA:205,613
DA:207,76
DA:208,76
DA:216,1
DA:217,1
DA:219,1
DA:220,1
BRF:0
BRH:0
LF:106
LH:63
end_of_record
SF:/Users/apognu/code/personal/motiva/src/schemas.rs
FN:10,_RNvMNtCsXyt6dnSXPr_6motiva7schemasNtB2_7Schemas3get
FN:61,_RNvNtCsXyt6dnSXPr_6motiva7schemas15resolve_schemas
FN:114,_RNvNtCsXyt6dnSXPr_6motiva7schemas6c_true
FN:121,_RNvNtNtCsXyt6dnSXPr_6motiva7schemas5testss_15resolve_schemas
FN:18,_RNCNCNvNtCsXyt6dnSXPr_6motiva7schemas7SCHEMAS00B7_
FN:14,_RNCNvNtCsXyt6dnSXPr_6motiva7schemas7SCHEMAS0B5_
FNDA:0,_RNvMNtCsXyt6dnSXPr_6motiva7schemasNtB2_7Schemas3get
FNDA:348,_RNvNtCsXyt6dnSXPr_6motiva7schemas15resolve_schemas
FNDA:461,_RNvNtCsXyt6dnSXPr_6motiva7schemas6c_true
FNDA:1,_RNvNtNtCsXyt6dnSXPr_6motiva7schemas5testss_15resolve_schemas
FNDA:70,_RNCNCNvNtCsXyt6dnSXPr_6motiva7schemas7SCHEMAS00B7_
FNDA:1,_RNCNvNtCsXyt6dnSXPr_6motiva7schemas7SCHEMAS0B5_
FNF:6
FNH:5
DA:10,0
DA:14,1
DA:15,1
DA:17,1
DA:18,70
DA:19,70
DA:20,70
DA:21,70
DA:23,70
DA:24,70
DA:25,1
DA:27,1
DA:28,1
DA:30,71
DA:31,70
DA:32,70
DA:34,151
DA:35,81
DA:36,81
DA:39,70
DA:40,70
DA:41,70
DA:43,70
DA:44,16
DA:45,54
DA:47,236
DA:48,166
DA:49,153
DA:50,27
DA:51,27
DA:52,139
DA:55,70
DA:58,1
DA:59,1
DA:61,348
DA:62,348
DA:64,348
DA:65,348
DA:66,57
DA:67,291
DA:69,291
DA:70,291
DA:71,291
DA:73,495
DA:74,204
DA:76,0
DA:78,291
DA:79,348
DA:114,461
DA:115,461
DA:116,461
DA:121,1
DA:122,1
DA:124,1
DA:125,1
DA:126,1
DA:129,1
DA:131,1
DA:132,1
DA:133,1
DA:135,1
BRF:0
BRH:0
LF:62
LH:60
end_of_record
SF:/Users/apognu/code/personal/motiva/src/scoring.rs
FN:12,_RINvNtCsXyt6dnSXPr_6motiva7scoring5scoreNtNtNtB4_8matching10name_based9NameBasedEB4_
FN:12,_RINvNtCsXyt6dnSXPr_6motiva7scoring5scoreNtNtNtB4_8matching14name_qualified13NameQualifiedEB4_
FN:12,_RINvNtCsXyt6dnSXPr_6motiva7scoring5scoreNtNtNtB4_8matching8logic_v17LogicV1EB4_
FN:19,_RNCINvNtCsXyt6dnSXPr_6motiva7scoring5scoreNtNtNtB6_8matching10name_based9NameBasedE0B6_
FN:19,_RNCINvNtCsXyt6dnSXPr_6motiva7scoring5scoreNtNtNtB6_8matching14name_qualified13NameQualifiedE0B6_
FN:19,_RNCINvNtCsXyt6dnSXPr_6motiva7scoring5scoreNtNtNtB6_8matching8logic_v17LogicV1E0B6_
FN:24,_RNCNCINvNtCsXyt6dnSXPr_6motiva7scoring5scoreNtNtNtB8_8matching10name_based9NameBasedE00B8_
FN:24,_RNCNCINvNtCsXyt6dnSXPr_6motiva7scoring5scoreNtNtNtB8_8matching14name_qualified13NameQualifiedE00B8_
FN:24,_RNCNCINvNtCsXyt6dnSXPr_6motiva7scoring5scoreNtNtNtB8_8matching8logic_v17LogicV1E00B8_
FNDA:0,_RINvNtCsXyt6dnSXPr_6motiva7scoring5scoreNtNtNtB4_8matching10name_based9NameBasedEB4_
FNDA:0,_RINvNtCsXyt6dnSXPr_6motiva7scoring5scoreNtNtNtB4_8matching14name_qualified13NameQualifiedEB4_
FNDA:1,_RINvNtCsXyt6dnSXPr_6motiva7scoring5scoreNtNtNtB4_8matching8logic_v17LogicV1EB4_
FNDA:0,_RNCINvNtCsXyt6dnSXPr_6motiva7scoring5scoreNtNtNtB6_8matching10name_based9NameBasedE0B6_
FNDA:0,_RNCINvNtCsXyt6dnSXPr_6motiva7scoring5scoreNtNtNtB6_8matching14name_qualified13NameQualifiedE0B6_
FNDA:2,_RNCINvNtCsXyt6dnSXPr_6motiva7scoring5scoreNtNtNtB6_8matching8logic_v17LogicV1E0B6_
FNDA:0,_RNCNCINvNtCsXyt6dnSXPr_6motiva7scoring5scoreNtNtNtB8_8matching10name_based9NameBasedE00B8_
FNDA:0,_RNCNCINvNtCsXyt6dnSXPr_6motiva7scoring5scoreNtNtNtB8_8matching14name_qualified13NameQualifiedE00B8_
FNDA:35,_RNCNCINvNtCsXyt6dnSXPr_6motiva7scoring5scoreNtNtNtB8_8matching8logic_v17LogicV1E00B8_
FNF:3
FNH:3
DA:12,1
DA:13,1
DA:15,1
DA:16,1
DA:17,1
DA:19,2
DA:20,2
DA:22,2
DA:24,35
DA:26,2
DA:28,2
DA:30,2
DA:31,2
DA:33,1
DA:35,1
DA:37,1
DA:38,1
BRF:0
BRH:0
LF:19
LH:19
end_of_record
SF:/Users/apognu/code/personal/motiva/src/trace.rs
FN:81,_RNCNCNvNtCsXyt6dnSXPr_6motiva5trace11init_logger00B7_
FN:17,_RNCNvNtCsXyt6dnSXPr_6motiva5trace11init_logger0B5_
FN:17,_RNvNtCsXyt6dnSXPr_6motiva5trace11init_logger
FNDA:0,_RNCNCNvNtCsXyt6dnSXPr_6motiva5trace11init_logger00B7_
FNDA:0,_RNCNvNtCsXyt6dnSXPr_6motiva5trace11init_logger0B5_
FNDA:0,_RNvNtCsXyt6dnSXPr_6motiva5trace11init_logger
FNF:3
FNH:0
DA:17,0
DA:20,0
DA:22,0
DA:23,0
DA:24,0
DA:27,0
DA:29,0
DA:31,0
DA:32,0
DA:33,0
DA:35,0
DA:37,0
DA:38,0
DA:39,0
DA:40,0
DA:42,0
DA:43,0
DA:44,0
DA:46,0
DA:47,0
DA:48,0
DA:50,0
DA:55,0
DA:56,0
DA:58,0
DA:59,0
DA:60,0
DA:61,0
DA:63,0
DA:66,0
DA:72,0
DA:75,0
DA:76,0
DA:77,0
DA:78,0
DA:80,0
DA:81,0
DA:82,0
DA:83,0
DA:84,0
DA:85,0
DA:87,0
DA:88,0
DA:89,0
DA:91,0
DA:92,0
BRF:0
BRH:0
LF:48
LH:0
end_of_record